(lp0
(lp1
cnumpy.core.multiarray
scalar
p2
(cnumpy
dtype
p3
(S'f4'
p4
I0
I1
tp5
Rp6
(I3
S'<'
p7
NNNI-1
I-1
I0
tp8
bS'\n)\xe4@'
p9
tp10
Rp11
ag2
(g6
S'6\x80\xd7@'
p12
tp13
Rp14
ag2
(g6
S'\xd8.\xd0@'
p15
tp16
Rp17
ag2
(g6
S'\xff\xa6\xc1@'
p18
tp19
Rp20
ag2
(g6
S'\x1a\x8c\xad@'
p21
tp22
Rp23
ag2
(g6
S'\xc6\xae\x94@'
p24
tp25
Rp26
ag2
(g6
S'pDv@'
p27
tp28
Rp29
ag2
(g6
S'\x1dPP@'
p30
tp31
Rp32
ag2
(g6
S"\xb6\x13'@"
p33
tp34
Rp35
ag2
(g6
S'\x8ct\x03@'
p36
tp37
Rp38
ag2
(g6
S'\xcfm\xc9?'
p39
tp40
Rp41
ag2
(g6
S'qY\xa9?'
p42
tp43
Rp44
ag2
(g6
S'\x03\xab\x98?'
p45
tp46
Rp47
ag2
(g6
S'Ou\x81?'
p48
tp49
Rp50
ag2
(g6
S'\x1c#[?'
p51
tp52
Rp53
ag2
(g6
S'h\x9e3?'
p54
tp55
Rp56
ag2
(g6
S'\x08\\9?'
p57
tp58
Rp59
ag2
(g6
S'No+?'
p60
tp61
Rp62
ag2
(g6
S'\xe0\xdb-?'
p63
tp64
Rp65
ag2
(g6
S'\xac\x8e\x11?'
p66
tp67
Rp68
ag2
(g6
S'\x946\x0e?'
p69
tp70
Rp71
ag2
(g6
S'r\xeb\x07?'
p72
tp73
Rp74
ag2
(g6
S'\xec\xcd\t?'
p75
tp76
Rp77
ag2
(g6
S'\xb2@\x05?'
p78
tp79
Rp80
ag2
(g6
S'\x00%\t?'
p81
tp82
Rp83
ag2
(g6
S'\xf8\xa0\xf1>'
p84
tp85
Rp86
ag2
(g6
S'\xc0f\x03?'
p87
tp88
Rp89
ag2
(g6
S'\xbc\xa6\xe4>'
p90
tp91
Rp92
ag2
(g6
S"H'\xf0>"
p93
tp94
Rp95
ag2
(g6
S'DD\xe2>'
p96
tp97
Rp98
ag2
(g6
S',\xa3\xd7>'
p99
tp100
Rp101
ag2
(g6
S'\xccg\xc3>'
p102
tp103
Rp104
ag2
(g6
S'\xf8d\xda>'
p105
tp106
Rp107
ag2
(g6
S'8a\xd2>'
p108
tp109
Rp110
ag2
(g6
S'0\xd5\xc7>'
p111
tp112
Rp113
ag2
(g6
S'\x90\xc4\xf8>'
p114
tp115
Rp116
ag2
(g6
S',w\xc3>'
p117
tp118
Rp119
ag2
(g6
S'\x00v\xd7>'
p120
tp121
Rp122
ag2
(g6
S' \xc2\xd7>'
p123
tp124
Rp125
ag2
(g6
S'$\xc1\xd1>'
p126
tp127
Rp128
ag2
(g6
S'\xa0\xaf\xd0>'
p129
tp130
Rp131
ag2
(g6
S',\x9d\xca>'
p132
tp133
Rp134
ag2
(g6
S'\xfc<\xe7>'
p135
tp136
Rp137
ag2
(g6
S'\xb0\xf1\xe0>'
p138
tp139
Rp140
ag2
(g6
S'4\xc2\xce>'
p141
tp142
Rp143
ag2
(g6
S'ht\xc1>'
p144
tp145
Rp146
ag2
(g6
S'\xd0\xd4\xd1>'
p147
tp148
Rp149
ag2
(g6
S'\xc4\xde\xc9>'
p150
tp151
Rp152
ag2
(g6
S'\xbc\x00\xce>'
p153
tp154
Rp155
ag2
(g6
S'\x98\x96\xdc>'
p156
tp157
Rp158
ag2
(g6
S'\x0cP\xc9>'
p159
tp160
Rp161
ag2
(g6
S'\xa4\xe8\xce>'
p162
tp163
Rp164
ag2
(g6
S'\xb0\xef\xd9>'
p165
tp166
Rp167
ag2
(g6
S'h\xbc\xd9>'
p168
tp169
Rp170
ag2
(g6
S'\x8c\xaf\xc3>'
p171
tp172
Rp173
ag2
(g6
S'\xb0\x93\xcb>'
p174
tp175
Rp176
ag2
(g6
S'\xe4\xaa\xc6>'
p177
tp178
Rp179
ag2
(g6
S'\x9c\xf6\xc2>'
p180
tp181
Rp182
ag2
(g6
S'`\xec\xa4>'
p183
tp184
Rp185
ag2
(g6
S'x>\xcc>'
p186
tp187
Rp188
ag2
(g6
S'Dh\xb6>'
p189
tp190
Rp191
ag2
(g6
S'\xc4\x96\xbe>'
p192
tp193
Rp194
ag2
(g6
S'\x8c\xb8\xb6>'
p195
tp196
Rp197
ag2
(g6
S'\xf4\xc7\xdb>'
p198
tp199
Rp200
ag2
(g6
S'\xdcO\xc9>'
p201
tp202
Rp203
ag2
(g6
S'@\x14\xbc>'
p204
tp205
Rp206
ag2
(g6
S't\xfa\xc9>'
p207
tp208
Rp209
ag2
(g6
S'\x18\x07\xc4>'
p210
tp211
Rp212
ag2
(g6
S'\x9cp\xc5>'
p213
tp214
Rp215
ag2
(g6
S'\xe0\x08\xc8>'
p216
tp217
Rp218
ag2
(g6
S'H\x84\xcc>'
p219
tp220
Rp221
ag2
(g6
S'\xcc\x9f\xd1>'
p222
tp223
Rp224
ag2
(g6
S'\xfc\xcc\xd2>'
p225
tp226
Rp227
ag2
(g6
S'\xc4\xf8\xce>'
p228
tp229
Rp230
ag2
(g6
S'l;\xd0>'
p231
tp232
Rp233
ag2
(g6
S'p.\xb9>'
p234
tp235
Rp236
ag2
(g6
S'\x10\xcb\xea>'
p237
tp238
Rp239
ag2
(g6
S'\xbc\xb3\xca>'
p240
tp241
Rp242
ag2
(g6
S'\x04t\xb9>'
p243
tp244
Rp245
ag2
(g6
S'@\x87\xbf>'
p246
tp247
Rp248
ag2
(g6
S'\x1c"\xb7>'
p249
tp250
Rp251
ag2
(g6
S'\xd0\x0f\xbd>'
p252
tp253
Rp254
ag2
(g6
S'8*\xc3>'
p255
tp256
Rp257
ag2
(g6
S'\xd83\xc1>'
p258
tp259
Rp260
ag2
(g6
S'Hj\xbc>'
p261
tp262
Rp263
ag2
(g6
S'\xb0e\xb8>'
p264
tp265
Rp266
ag2
(g6
S'\x0c\xe3\xaf>'
p267
tp268
Rp269
ag2
(g6
S'\xd8u\xcb>'
p270
tp271
Rp272
ag2
(g6
S'\xc0\xc0\xbe>'
p273
tp274
Rp275
ag2
(g6
S'\x88|\xe7>'
p276
tp277
Rp278
ag2
(g6
S'\x90\x92\xd1>'
p279
tp280
Rp281
ag2
(g6
S'\x14\x9c\xca>'
p282
tp283
Rp284
ag2
(g6
S'\xc0\xf1\xb1>'
p285
tp286
Rp287
ag2
(g6
S'\xf4u\xb3>'
p288
tp289
Rp290
ag2
(g6
S'\x04f\xb7>'
p291
tp292
Rp293
ag2
(g6
S'\x90\xe2\xbb>'
p294
tp295
Rp296
ag2
(g6
S'\xc8W\xb5>'
p297
tp298
Rp299
ag2
(g6
S'4\xc5\xb0>'
p300
tp301
Rp302
ag2
(g6
S'\xac\x00\xbd>'
p303
tp304
Rp305
ag2
(g6
S'\x88a\xb0>'
p306
tp307
Rp308
ag2
(g6
S'ps\xaf>'
p309
tp310
Rp311
ag2
(g6
S'\xd4\xa1\xb1>'
p312
tp313
Rp314
ag2
(g6
S'8\xd1\xbe>'
p315
tp316
Rp317
ag2
(g6
S'\xa8\xbc\xb9>'
p318
tp319
Rp320
ag2
(g6
S'\xd89\xc5>'
p321
tp322
Rp323
ag2
(g6
S' C\xa9>'
p324
tp325
Rp326
ag2
(g6
S'0\xa9\xc2>'
p327
tp328
Rp329
ag2
(g6
S'\x9c0\xb3>'
p330
tp331
Rp332
ag2
(g6
S'\xc4.\xa3>'
p333
tp334
Rp335
ag2
(g6
S'\x1c\x9d\xc2>'
p336
tp337
Rp338
ag2
(g6
S'\xb4\xb8\xb1>'
p339
tp340
Rp341
ag2
(g6
S'h\xc4\xbd>'
p342
tp343
Rp344
ag2
(g6
S'\xb0\x1e\xbb>'
p345
tp346
Rp347
ag2
(g6
S'|\x8e\xb6>'
p348
tp349
Rp350
ag2
(g6
S'tN\xb1>'
p351
tp352
Rp353
ag2
(g6
S'\xf8\x7f\xcc>'
p354
tp355
Rp356
ag2
(g6
S'pf\xcf>'
p357
tp358
Rp359
ag2
(g6
S'\xfc\\\xb2>'
p360
tp361
Rp362
ag2
(g6
S'\x18S\xcb>'
p363
tp364
Rp365
ag2
(g6
S'\xb8#\xcb>'
p366
tp367
Rp368
ag2
(g6
S'\xa0\xf3\xb4>'
p369
tp370
Rp371
ag2
(g6
S'\xc4\x17\xc0>'
p372
tp373
Rp374
ag2
(g6
S'@\x07\xc9>'
p375
tp376
Rp377
ag2
(g6
S'\\\xec\xc7>'
p378
tp379
Rp380
ag2
(g6
S'@C\xb4>'
p381
tp382
Rp383
ag2
(g6
S'xf\xcd>'
p384
tp385
Rp386
ag2
(g6
S'\xd4\xed\xac>'
p387
tp388
Rp389
ag2
(g6
S'8\xb3\xd5>'
p390
tp391
Rp392
ag2
(g6
S'\xf0\x9d\xc3>'
p393
tp394
Rp395
ag2
(g6
S'0"\xd5>'
p396
tp397
Rp398
ag2
(g6
S'\x14\xe7\xc6>'
p399
tp400
Rp401
ag2
(g6
S'\xdc\x8f\xac>'
p402
tp403
Rp404
ag2
(g6
S'|6\xba>'
p405
tp406
Rp407
ag2
(g6
S'\xd4\x1d\xc4>'
p408
tp409
Rp410
ag2
(g6
S'\x1c1\xc7>'
p411
tp412
Rp413
ag2
(g6
S'\x80\x9f\xcc>'
p414
tp415
Rp416
ag2
(g6
S'\xf0\xce\xcf>'
p417
tp418
Rp419
ag2
(g6
S'D\xb7\xc4>'
p420
tp421
Rp422
ag2
(g6
S'li\xed>'
p423
tp424
Rp425
ag2
(g6
S'\x00n\xba>'
p426
tp427
Rp428
ag2
(g6
S'\x9c\xd6\xb6>'
p429
tp430
Rp431
ag2
(g6
S'\xb4\x0e\xca>'
p432
tp433
Rp434
ag2
(g6
S'\xbcV\xb5>'
p435
tp436
Rp437
ag2
(g6
S'`\xcc\xe9>'
p438
tp439
Rp440
ag2
(g6
S'\xf8\x8c\xcc>'
p441
tp442
Rp443
ag2
(g6
S'\xbc*\xbc>'
p444
tp445
Rp446
ag2
(g6
S'0\xd9\xbb>'
p447
tp448
Rp449
ag2
(g6
S'$l\xb4>'
p450
tp451
Rp452
ag2
(g6
S'\xec1\xd0>'
p453
tp454
Rp455
ag2
(g6
S'dY\xc3>'
p456
tp457
Rp458
ag2
(g6
S'\xf00\xeb>'
p459
tp460
Rp461
ag2
(g6
S'\x80\xc8\xbc>'
p462
tp463
Rp464
ag2
(g6
S'\xc8\xcd\xb4>'
p465
tp466
Rp467
ag2
(g6
S'Pe\xc5>'
p468
tp469
Rp470
ag2
(g6
S'8\n\xc7>'
p471
tp472
Rp473
ag2
(g6
S'\x801\xc6>'
p474
tp475
Rp476
ag2
(g6
S'\xb8,\xc5>'
p477
tp478
Rp479
ag2
(g6
S'\xb8\xf8\xc4>'
p480
tp481
Rp482
ag2
(g6
S'd\x0c\xca>'
p483
tp484
Rp485
ag2
(g6
S'\xa8B\xba>'
p486
tp487
Rp488
ag2
(g6
S'\xac\xb6\xc0>'
p489
tp490
Rp491
ag2
(g6
S't\x04\xc2>'
p492
tp493
Rp494
ag2
(g6
S'\xa8\xee\xab>'
p495
tp496
Rp497
ag2
(g6
S'\xb0\xc9\xea>'
p498
tp499
Rp500
ag2
(g6
S'\x84[\xb7>'
p501
tp502
Rp503
ag2
(g6
S'$k\xc9>'
p504
tp505
Rp506
ag2
(g6
S'\x9c\x8b\xb7>'
p507
tp508
Rp509
ag2
(g6
S'\xe4\x8d\xbc>'
p510
tp511
Rp512
ag2
(g6
S'\xfc\xf6\xbd>'
p513
tp514
Rp515
ag2
(g6
S'h\xcb\xb6>'
p516
tp517
Rp518
ag2
(g6
S'\xb4E\xaf>'
p519
tp520
Rp521
ag2
(g6
S'<\x9f\xb8>'
p522
tp523
Rp524
ag2
(g6
S'\x84\xc8\xc1>'
p525
tp526
Rp527
ag2
(g6
S'\xb8\xfc\xca>'
p528
tp529
Rp530
ag2
(g6
S'0\x15\xb1>'
p531
tp532
Rp533
ag2
(g6
S',\x01\xb9>'
p534
tp535
Rp536
ag2
(g6
S'\x98\xd4\xa6>'
p537
tp538
Rp539
ag2
(g6
S'\xd8\t\xba>'
p540
tp541
Rp542
ag2
(g6
S'\x94\xae\xc6>'
p543
tp544
Rp545
ag2
(g6
S'p\x84\xc1>'
p546
tp547
Rp548
ag2
(g6
S'Xt\xb1>'
p549
tp550
Rp551
ag2
(g6
S'\xb4\xd2\xce>'
p552
tp553
Rp554
ag2
(g6
S'0?\xd7>'
p555
tp556
Rp557
ag2
(g6
S'4W\xbf>'
p558
tp559
Rp560
ag2
(g6
S'\x00\x90\xca>'
p561
tp562
Rp563
ag2
(g6
S'4\xa9\xb5>'
p564
tp565
Rp566
ag2
(g6
S'\xf4\xd5\xb4>'
p567
tp568
Rp569
ag2
(g6
S'\x1c\x02\xcb>'
p570
tp571
Rp572
ag2
(g6
S'\xc4\x8a\xbc>'
p573
tp574
Rp575
ag2
(g6
S'\xf8F\xbd>'
p576
tp577
Rp578
ag2
(g6
S'HJ\xaf>'
p579
tp580
Rp581
ag2
(g6
S'xo\xb9>'
p582
tp583
Rp584
ag2
(g6
S'd\x84\xc4>'
p585
tp586
Rp587
ag2
(g6
S'\xe8\xb4\xc1>'
p588
tp589
Rp590
ag2
(g6
S'\x14\x0b\xbf>'
p591
tp592
Rp593
ag2
(g6
S'\x0c\xef\xc2>'
p594
tp595
Rp596
ag2
(g6
S'`\xe0\xa5>'
p597
tp598
Rp599
ag2
(g6
S'@r\xc5>'
p600
tp601
Rp602
ag2
(g6
S'P\xa6\xcc>'
p603
tp604
Rp605
ag2
(g6
S'\xf8e\xbe>'
p606
tp607
Rp608
ag2
(g6
S' \x89\xbb>'
p609
tp610
Rp611
ag2
(g6
S'\xec\x99\xb4>'
p612
tp613
Rp614
ag2
(g6
S'\xd0\xc8\xc9>'
p615
tp616
Rp617
ag2
(g6
S'P\xf3\xbc>'
p618
tp619
Rp620
ag2
(g6
S'\xac\xce\xc3>'
p621
tp622
Rp623
ag2
(g6
S'@+\xc6>'
p624
tp625
Rp626
ag2
(g6
S'\x00b\xbb>'
p627
tp628
Rp629
ag2
(g6
S',r\xc5>'
p630
tp631
Rp632
ag2
(g6
S'\x10\xc0\xb8>'
p633
tp634
Rp635
ag2
(g6
S'\x04\x01\xc0>'
p636
tp637
Rp638
ag2
(g6
S'8\xfc\xc8>'
p639
tp640
Rp641
ag2
(g6
S't\xd9\xcb>'
p642
tp643
Rp644
ag2
(g6
S'\xc8I\xc4>'
p645
tp646
Rp647
ag2
(g6
S'<\xf6\xbf>'
p648
tp649
Rp650
ag2
(g6
S'd\xa2\xbd>'
p651
tp652
Rp653
ag2
(g6
S'(\xd4\xa5>'
p654
tp655
Rp656
ag2
(g6
S'\xb0\xaf\xdd>'
p657
tp658
Rp659
ag2
(g6
S'@i\xcc>'
p660
tp661
Rp662
ag2
(g6
S'x\x86\xd5>'
p663
tp664
Rp665
ag2
(g6
S'\x801\xc7>'
p666
tp667
Rp668
ag2
(g6
S'@\xbe\xe6>'
p669
tp670
Rp671
ag2
(g6
S'\xec?\xc4>'
p672
tp673
Rp674
ag2
(g6
S'(\x18\xac>'
p675
tp676
Rp677
ag2
(g6
S'\xb4\xbc\xba>'
p678
tp679
Rp680
ag2
(g6
S'\xfc\xb2\xc1>'
p681
tp682
Rp683
ag2
(g6
S'|:\xa8>'
p684
tp685
Rp686
ag2
(g6
S'\x84G\xbb>'
p687
tp688
Rp689
ag2
(g6
S'\x8c\xbf\xb1>'
p690
tp691
Rp692
ag2
(g6
S'0\x15\xba>'
p693
tp694
Rp695
ag2
(g6
S'\xf0\xe4\xb6>'
p696
tp697
Rp698
ag2
(g6
S'\xf05\xd3>'
p699
tp700
Rp701
ag2
(g6
S'\x98\x17\xcb>'
p702
tp703
Rp704
ag2
(g6
S'\x8c\x95\xc9>'
p705
tp706
Rp707
ag2
(g6
S'\x80\x83\xc1>'
p708
tp709
Rp710
ag2
(g6
S'$\x0e\xa9>'
p711
tp712
Rp713
ag2
(g6
S'\x10X\xc0>'
p714
tp715
Rp716
ag2
(g6
S'\x84Q\xcb>'
p717
tp718
Rp719
ag2
(g6
S'\xd8\t\xbf>'
p720
tp721
Rp722
ag2
(g6
S'|\xaa\xbf>'
p723
tp724
Rp725
ag2
(g6
S'H\x02\xd5>'
p726
tp727
Rp728
ag2
(g6
S' \xea\xc2>'
p729
tp730
Rp731
ag2
(g6
S'lR\xb8>'
p732
tp733
Rp734
ag2
(g6
S'8=\xb8>'
p735
tp736
Rp737
ag2
(g6
S'\xe4\xb0\xaf>'
p738
tp739
Rp740
ag2
(g6
S'\xccb\xbc>'
p741
tp742
Rp743
ag2
(g6
S'\xb0\x92\xbd>'
p744
tp745
Rp746
ag2
(g6
S'\xf8\xef\xb1>'
p747
tp748
Rp749
ag2
(g6
S'\xf8>\xb8>'
p750
tp751
Rp752
ag2
(g6
S'\x0c\xa0\xbe>'
p753
tp754
Rp755
ag2
(g6
S'\xfc\x0e\xb9>'
p756
tp757
Rp758
ag2
(g6
S'4B\xb4>'
p759
tp760
Rp761
ag2
(g6
S't\x93\xc3>'
p762
tp763
Rp764
ag2
(g6
S'\x8cH\xcd>'
p765
tp766
Rp767
ag2
(g6
S'\xb8\xbd\xb0>'
p768
tp769
Rp770
ag2
(g6
S'\x1c^\xb6>'
p771
tp772
Rp773
ag2
(g6
S'$=\xbe>'
p774
tp775
Rp776
ag2
(g6
S'\x80\xa0\xc4>'
p777
tp778
Rp779
ag2
(g6
S'$\x8c\xcf>'
p780
tp781
Rp782
ag2
(g6
S'\\\x7f\xb2>'
p783
tp784
Rp785
ag2
(g6
S'P\xa4\xa8>'
p786
tp787
Rp788
ag2
(g6
S'<\xff\xa7>'
p789
tp790
Rp791
ag2
(g6
S'\xa8\\\xc7>'
p792
tp793
Rp794
ag2
(g6
S'\x9c\x0f\xb7>'
p795
tp796
Rp797
ag2
(g6
S'\xd0\xc0\xb9>'
p798
tp799
Rp800
ag2
(g6
S'\xf8\x99\xb5>'
p801
tp802
Rp803
ag2
(g6
S'\x0c\xe2\xb6>'
p804
tp805
Rp806
ag2
(g6
S'\x143\xca>'
p807
tp808
Rp809
ag2
(g6
S'\xe45\xac>'
p810
tp811
Rp812
ag2
(g6
S'\x04\x02\xa0>'
p813
tp814
Rp815
ag2
(g6
S'\x14\x1b\xb7>'
p816
tp817
Rp818
ag2
(g6
S'\xb0\x80\xbc>'
p819
tp820
Rp821
ag2
(g6
S'\xc4C\xbc>'
p822
tp823
Rp824
ag2
(g6
S'D\xef\xd4>'
p825
tp826
Rp827
ag2
(g6
S'\x18\x93\xc7>'
p828
tp829
Rp830
ag2
(g6
S'\x98|\xc0>'
p831
tp832
Rp833
ag2
(g6
S' \xf7\xba>'
p834
tp835
Rp836
ag2
(g6
S'DN\xd1>'
p837
tp838
Rp839
ag2
(g6
S'\xb8O\xbd>'
p840
tp841
Rp842
ag2
(g6
S'4H\xd4>'
p843
tp844
Rp845
ag2
(g6
S'|\xe3\xb1>'
p846
tp847
Rp848
ag2
(g6
S'4^\xc4>'
p849
tp850
Rp851
ag2
(g6
S'\x18\xb5\xbe>'
p852
tp853
Rp854
ag2
(g6
S'(}\xcb>'
p855
tp856
Rp857
ag2
(g6
S'\xec\xff\xb6>'
p858
tp859
Rp860
ag2
(g6
S'\xf8!\xb1>'
p861
tp862
Rp863
ag2
(g6
S'@\xff\xcf>'
p864
tp865
Rp866
ag2
(g6
S'4\x91\xb3>'
p867
tp868
Rp869
ag2
(g6
S'DO\xbb>'
p870
tp871
Rp872
ag2
(g6
S'\xdc\xfe\x9e>'
p873
tp874
Rp875
ag2
(g6
S'\xacY\xac>'
p876
tp877
Rp878
ag2
(g6
S'\xd4;\xc3>'
p879
tp880
Rp881
ag2
(g6
S'`\xf6\xba>'
p882
tp883
Rp884
ag2
(g6
S'\xb0\x0f\xd0>'
p885
tp886
Rp887
ag2
(g6
S'\xa4\xb4\xb2>'
p888
tp889
Rp890
ag2
(g6
S'\x04\x87\xb0>'
p891
tp892
Rp893
ag2
(g6
S'\x98\xa0\x9e>'
p894
tp895
Rp896
ag2
(g6
S'\xb0\xe7\xc1>'
p897
tp898
Rp899
ag2
(g6
S'p\xba\xd6>'
p900
tp901
Rp902
ag2
(g6
S'P\x7f\xc1>'
p903
tp904
Rp905
ag2
(g6
S'\xc8y\xbd>'
p906
tp907
Rp908
ag2
(g6
S'H\xc1\xa8>'
p909
tp910
Rp911
ag2
(g6
S'l\xe4\xae>'
p912
tp913
Rp914
ag2
(g6
S'\x08\x94\xb6>'
p915
tp916
Rp917
ag2
(g6
S'D\x1e\xbd>'
p918
tp919
Rp920
ag2
(g6
S'T\xb7\xcf>'
p921
tp922
Rp923
ag2
(g6
S'\x00]\xb2>'
p924
tp925
Rp926
ag2
(g6
S'\x0c_\xc7>'
p927
tp928
Rp929
ag2
(g6
S'L\x8c\xc9>'
p930
tp931
Rp932
ag2
(g6
S'tr\xc0>'
p933
tp934
Rp935
ag2
(g6
S'\xbc\xb0\xaa>'
p936
tp937
Rp938
ag2
(g6
S'T\x86\xb4>'
p939
tp940
Rp941
ag2
(g6
S'T`\xae>'
p942
tp943
Rp944
ag2
(g6
S'\x10\xfe\xbc>'
p945
tp946
Rp947
ag2
(g6
S'(8\xc9>'
p948
tp949
Rp950
ag2
(g6
S'\x88\xb0\xbd>'
p951
tp952
Rp953
ag2
(g6
S'\xb0\x96\xbf>'
p954
tp955
Rp956
ag2
(g6
S'\x0c\xbe\xd2>'
p957
tp958
Rp959
ag2
(g6
S'\x80r\xb7>'
p960
tp961
Rp962
ag2
(g6
S'P\x94\xc3>'
p963
tp964
Rp965
ag2
(g6
S'\xecX\xb3>'
p966
tp967
Rp968
ag2
(g6
S'T\x13\xb8>'
p969
tp970
Rp971
ag2
(g6
S'\x8c\xd6\xcb>'
p972
tp973
Rp974
ag2
(g6
S'\x1cQ\xad>'
p975
tp976
Rp977
ag2
(g6
S'l3\xb4>'
p978
tp979
Rp980
ag2
(g6
S'\xcc@\xab>'
p981
tp982
Rp983
ag2
(g6
S'\xac\xa8\xc7>'
p984
tp985
Rp986
ag2
(g6
S'\xa4\xf4\xaf>'
p987
tp988
Rp989
ag2
(g6
S'\xa8(\xb4>'
p990
tp991
Rp992
ag2
(g6
S'`\xe8\xc7>'
p993
tp994
Rp995
ag2
(g6
S'|C\xce>'
p996
tp997
Rp998
ag2
(g6
S'$\x9b\xb1>'
p999
tp1000
Rp1001
ag2
(g6
S'\xf0\n\xc0>'
p1002
tp1003
Rp1004
ag2
(g6
S'8\xc6\xba>'
p1005
tp1006
Rp1007
ag2
(g6
S'\xe0\xa5\xaf>'
p1008
tp1009
Rp1010
ag2
(g6
S'\x1c\x99\xc5>'
p1011
tp1012
Rp1013
ag2
(g6
S'\xe8\x85\xb7>'
p1014
tp1015
Rp1016
ag2
(g6
S'\x80Q\xb5>'
p1017
tp1018
Rp1019
ag2
(g6
S'X\xb0\xbc>'
p1020
tp1021
Rp1022
ag2
(g6
S'\xe0\x82\xb5>'
p1023
tp1024
Rp1025
ag2
(g6
S'\xc0\xb9\xb8>'
p1026
tp1027
Rp1028
ag2
(g6
S'\x04\xec\xcf>'
p1029
tp1030
Rp1031
ag2
(g6
S'\\^\xb5>'
p1032
tp1033
Rp1034
ag2
(g6
S'\x905\xc7>'
p1035
tp1036
Rp1037
ag2
(g6
S'\xc4\xbd\xaf>'
p1038
tp1039
Rp1040
ag2
(g6
S'\xa8\x90\xc9>'
p1041
tp1042
Rp1043
ag2
(g6
S'\x84\xc3\xbe>'
p1044
tp1045
Rp1046
ag2
(g6
S'\xd0j\xbe>'
p1047
tp1048
Rp1049
ag2
(g6
S'(j\xb7>'
p1050
tp1051
Rp1052
ag2
(g6
S'\xb8\xad\x97>'
p1053
tp1054
Rp1055
ag2
(g6
S'\x04\x07\xbc>'
p1056
tp1057
Rp1058
ag2
(g6
S'D]\xc5>'
p1059
tp1060
Rp1061
ag2
(g6
S'\x18\xa5\xbf>'
p1062
tp1063
Rp1064
ag2
(g6
S'\xf8+\xbf>'
p1065
tp1066
Rp1067
ag2
(g6
S'\xb8a\xb6>'
p1068
tp1069
Rp1070
ag2
(g6
S'\xfc\xdc\xc0>'
p1071
tp1072
Rp1073
ag2
(g6
S'\xf4\xc3\xb0>'
p1074
tp1075
Rp1076
ag2
(g6
S'\x98V\xad>'
p1077
tp1078
Rp1079
ag2
(g6
S'\xccn\xbb>'
p1080
tp1081
Rp1082
ag2
(g6
S'\xbc\x08\xbb>'
p1083
tp1084
Rp1085
ag2
(g6
S'\x8c\xfa\xb4>'
p1086
tp1087
Rp1088
ag2
(g6
S'\xb0\x06\xb7>'
p1089
tp1090
Rp1091
ag2
(g6
S'4\xfb\xb5>'
p1092
tp1093
Rp1094
ag2
(g6
S'\x94\xc7\xbb>'
p1095
tp1096
Rp1097
ag2
(g6
S'l\xc7\xa7>'
p1098
tp1099
Rp1100
ag2
(g6
S'|#\xb9>'
p1101
tp1102
Rp1103
ag2
(g6
S'(2\xb2>'
p1104
tp1105
Rp1106
ag2
(g6
S'L\\\xbc>'
p1107
tp1108
Rp1109
ag2
(g6
S'\xb8\xcc\xc3>'
p1110
tp1111
Rp1112
ag2
(g6
S'D\xd2\xc3>'
p1113
tp1114
Rp1115
ag2
(g6
S'\xf0\x1e\xb7>'
p1116
tp1117
Rp1118
ag2
(g6
S'\xe8\x1c\xaf>'
p1119
tp1120
Rp1121
ag2
(g6
S'\x08q\xb3>'
p1122
tp1123
Rp1124
ag2
(g6
S'\x0c\xa2\xb1>'
p1125
tp1126
Rp1127
ag2
(g6
S'\xf0?\xa8>'
p1128
tp1129
Rp1130
ag2
(g6
S'\x88%\xc0>'
p1131
tp1132
Rp1133
ag2
(g6
S'\x94\xf6\xbc>'
p1134
tp1135
Rp1136
ag2
(g6
S'\x80\xed\xa7>'
p1137
tp1138
Rp1139
ag2
(g6
S'\xfcy\xb8>'
p1140
tp1141
Rp1142
ag2
(g6
S'\xa4\xfb\xb0>'
p1143
tp1144
Rp1145
ag2
(g6
S'\xa4\xb9\xab>'
p1146
tp1147
Rp1148
ag2
(g6
S'\xe0\x91\xb6>'
p1149
tp1150
Rp1151
ag2
(g6
S'\xc4\xa8\xb2>'
p1152
tp1153
Rp1154
ag2
(g6
S'T\xb1\xad>'
p1155
tp1156
Rp1157
ag2
(g6
S'\xa0\x16\xac>'
p1158
tp1159
Rp1160
ag2
(g6
S'|\x92\x9e>'
p1161
tp1162
Rp1163
ag2
(g6
S'\x04d\xaa>'
p1164
tp1165
Rp1166
ag2
(g6
S'@\xf0\xcb>'
p1167
tp1168
Rp1169
ag2
(g6
S'\x90\xd9\xaf>'
p1170
tp1171
Rp1172
ag2
(g6
S'\xe8\xb7\xa3>'
p1173
tp1174
Rp1175
ag2
(g6
S'pD\xa5>'
p1176
tp1177
Rp1178
ag2
(g6
S',\x8f\xaa>'
p1179
tp1180
Rp1181
ag2
(g6
S'\xd4\x04\x98>'
p1182
tp1183
Rp1184
ag2
(g6
S'0\xe6\xc4>'
p1185
tp1186
Rp1187
ag2
(g6
S'\x98j\xd3>'
p1188
tp1189
Rp1190
ag2
(g6
S'4v\xc4>'
p1191
tp1192
Rp1193
ag2
(g6
S'X\x90\xc4>'
p1194
tp1195
Rp1196
ag2
(g6
S'\xac\x18\xb0>'
p1197
tp1198
Rp1199
ag2
(g6
S'|\n\xb6>'
p1200
tp1201
Rp1202
ag2
(g6
S'dT\xa2>'
p1203
tp1204
Rp1205
ag2
(g6
S'\xb0|\xab>'
p1206
tp1207
Rp1208
ag2
(g6
S'`r\xb8>'
p1209
tp1210
Rp1211
ag2
(g6
S'<R\xab>'
p1212
tp1213
Rp1214
ag2
(g6
S'\xf8\x06\xad>'
p1215
tp1216
Rp1217
ag2
(g6
S'\xf8H\xbd>'
p1218
tp1219
Rp1220
ag2
(g6
S'\xc0\x8c\xb9>'
p1221
tp1222
Rp1223
ag2
(g6
S'\xc8`\xb6>'
p1224
tp1225
Rp1226
ag2
(g6
S'$i\xb5>'
p1227
tp1228
Rp1229
ag2
(g6
S'\xc4\x06\xac>'
p1230
tp1231
Rp1232
ag2
(g6
S' ]\xaf>'
p1233
tp1234
Rp1235
ag2
(g6
S'\xe8\xd2\x9f>'
p1236
tp1237
Rp1238
ag2
(g6
S'\x00\x1a\xb2>'
p1239
tp1240
Rp1241
ag2
(g6
S'\xa8\xb0\xaa>'
p1242
tp1243
Rp1244
ag2
(g6
S'\xd8Q\xbc>'
p1245
tp1246
Rp1247
ag2
(g6
S'\xac.\xa4>'
p1248
tp1249
Rp1250
ag2
(g6
S'\xbcy\xb2>'
p1251
tp1252
Rp1253
ag2
(g6
S'\xa4\x02\xa5>'
p1254
tp1255
Rp1256
ag2
(g6
S'p}\xac>'
p1257
tp1258
Rp1259
ag2
(g6
S'\xa8F\xc9>'
p1260
tp1261
Rp1262
ag2
(g6
S'\xd8n\xa7>'
p1263
tp1264
Rp1265
ag2
(g6
S'\xa0\xb3\xbb>'
p1266
tp1267
Rp1268
ag2
(g6
S'H \xae>'
p1269
tp1270
Rp1271
ag2
(g6
S'\\\x1e\xaa>'
p1272
tp1273
Rp1274
ag2
(g6
S'\xa8\x16\xba>'
p1275
tp1276
Rp1277
ag2
(g6
S'\x84u\xb5>'
p1278
tp1279
Rp1280
ag2
(g6
S'0\x11\x97>'
p1281
tp1282
Rp1283
ag2
(g6
S'tm\xad>'
p1284
tp1285
Rp1286
ag2
(g6
S'<\x81\xad>'
p1287
tp1288
Rp1289
ag2
(g6
S'd\xfd\x9a>'
p1290
tp1291
Rp1292
ag2
(g6
S'\x88\x05\xbe>'
p1293
tp1294
Rp1295
ag2
(g6
S'\xdc$\xab>'
p1296
tp1297
Rp1298
ag2
(g6
S'\xb4:\xa7>'
p1299
tp1300
Rp1301
ag2
(g6
S'\x14K\xc2>'
p1302
tp1303
Rp1304
ag2
(g6
S'\xc8\xa9\xb5>'
p1305
tp1306
Rp1307
ag2
(g6
S'8\x1e\xa1>'
p1308
tp1309
Rp1310
ag2
(g6
S'(\xc5\xb4>'
p1311
tp1312
Rp1313
ag2
(g6
S't"\xb2>'
p1314
tp1315
Rp1316
ag2
(g6
S'<\xa1\xa8>'
p1317
tp1318
Rp1319
ag2
(g6
S't\xc8\xb2>'
p1320
tp1321
Rp1322
ag2
(g6
S'\x0c\xf7\xb3>'
p1323
tp1324
Rp1325
ag2
(g6
S'\xd4J\xb4>'
p1326
tp1327
Rp1328
ag2
(g6
S'\xa4\xf3\xac>'
p1329
tp1330
Rp1331
ag2
(g6
S'\x00\xe2\xa4>'
p1332
tp1333
Rp1334
ag2
(g6
S'\xe0X\xb2>'
p1335
tp1336
Rp1337
ag2
(g6
S'`9\xae>'
p1338
tp1339
Rp1340
ag2
(g6
S'$%\xab>'
p1341
tp1342
Rp1343
ag2
(g6
S'\x04\x9f\xa2>'
p1344
tp1345
Rp1346
ag2
(g6
S'\xe0\xee\xa8>'
p1347
tp1348
Rp1349
ag2
(g6
S'\xa4\xd0\xa8>'
p1350
tp1351
Rp1352
ag2
(g6
S',\xd9\xa8>'
p1353
tp1354
Rp1355
ag2
(g6
S'@f\xa8>'
p1356
tp1357
Rp1358
ag2
(g6
S'\x14\x02\xb1>'
p1359
tp1360
Rp1361
ag2
(g6
S'<8\xaf>'
p1362
tp1363
Rp1364
ag2
(g6
S'L\x7f\xb6>'
p1365
tp1366
Rp1367
ag2
(g6
S'p\xa3\xaf>'
p1368
tp1369
Rp1370
ag2
(g6
S'\x8c\xa4\xa3>'
p1371
tp1372
Rp1373
ag2
(g6
S'\x1c\x04\xbc>'
p1374
tp1375
Rp1376
ag2
(g6
S'D1\xa3>'
p1377
tp1378
Rp1379
ag2
(g6
S'h\x80\xb1>'
p1380
tp1381
Rp1382
ag2
(g6
S'\x80|\xb9>'
p1383
tp1384
Rp1385
ag2
(g6
S'\xb8\x91\xa3>'
p1386
tp1387
Rp1388
ag2
(g6
S'\xc0\xfa\xa6>'
p1389
tp1390
Rp1391
ag2
(g6
S'\xbc\xf3\xac>'
p1392
tp1393
Rp1394
ag2
(g6
S't\x1f\xa4>'
p1395
tp1396
Rp1397
ag2
(g6
S'x\xd0\xb9>'
p1398
tp1399
Rp1400
ag2
(g6
S'\x14\xfe\x98>'
p1401
tp1402
Rp1403
ag2
(g6
S'\xf0\xec\xa0>'
p1404
tp1405
Rp1406
ag2
(g6
S'\x08-\xcd>'
p1407
tp1408
Rp1409
ag2
(g6
S'\x80\xbd\xa7>'
p1410
tp1411
Rp1412
ag2
(g6
S'\x10\x94\xad>'
p1413
tp1414
Rp1415
ag2
(g6
S'\xec&\xaf>'
p1416
tp1417
Rp1418
ag2
(g6
S'L\xb9\xb9>'
p1419
tp1420
Rp1421
ag2
(g6
S',U\xb9>'
p1422
tp1423
Rp1424
ag2
(g6
S'\x18h\xa8>'
p1425
tp1426
Rp1427
ag2
(g6
S'$M\xb0>'
p1428
tp1429
Rp1430
ag2
(g6
S'\xbc`\xaf>'
p1431
tp1432
Rp1433
ag2
(g6
S'X\x81\xaf>'
p1434
tp1435
Rp1436
ag2
(g6
S'\xe0\x9c\xa2>'
p1437
tp1438
Rp1439
ag2
(g6
S'\x84F\xb1>'
p1440
tp1441
Rp1442
ag2
(g6
S'\x88\x18\xb3>'
p1443
tp1444
Rp1445
ag2
(g6
S'\xc0\xca\xc9>'
p1446
tp1447
Rp1448
ag2
(g6
S'`\x87\xbc>'
p1449
tp1450
Rp1451
ag2
(g6
S'\xc4\xba\xb5>'
p1452
tp1453
Rp1454
ag2
(g6
S' \xdf\xb0>'
p1455
tp1456
Rp1457
ag2
(g6
S'0\xa1\xb9>'
p1458
tp1459
Rp1460
ag2
(g6
S'\x80U\xae>'
p1461
tp1462
Rp1463
ag2
(g6
S'\xecM\xb6>'
p1464
tp1465
Rp1466
ag2
(g6
S'L\x10\xa5>'
p1467
tp1468
Rp1469
ag2
(g6
S'p\xf1\xc0>'
p1470
tp1471
Rp1472
ag2
(g6
S'\x00:\xb2>'
p1473
tp1474
Rp1475
ag2
(g6
S'\xb8\x14\xbf>'
p1476
tp1477
Rp1478
ag2
(g6
S'\xcc\x9e\xa4>'
p1479
tp1480
Rp1481
ag2
(g6
S'\x80L\xa4>'
p1482
tp1483
Rp1484
ag2
(g6
S'l\x05\xc1>'
p1485
tp1486
Rp1487
ag2
(g6
S'\xac\xdf\x9f>'
p1488
tp1489
Rp1490
ag2
(g6
S'\x18f\xa2>'
p1491
tp1492
Rp1493
ag2
(g6
S'\x94\xe8\xbc>'
p1494
tp1495
Rp1496
ag2
(g6
S'\x08\xc8\xb3>'
p1497
tp1498
Rp1499
ag2
(g6
S'0!\xa0>'
p1500
tp1501
Rp1502
ag2
(g6
S'\xc0D\xc0>'
p1503
tp1504
Rp1505
ag2
(g6
S'\x00m\xa0>'
p1506
tp1507
Rp1508
ag2
(g6
S'P\xa9\xa8>'
p1509
tp1510
Rp1511
ag2
(g6
S'p\x1e\xac>'
p1512
tp1513
Rp1514
ag2
(g6
S'$\xeb\xa5>'
p1515
tp1516
Rp1517
ag2
(g6
S'\x086\xa4>'
p1518
tp1519
Rp1520
ag2
(g6
S'p\x88\xa3>'
p1521
tp1522
Rp1523
ag2
(g6
S'\xe0z\xaa>'
p1524
tp1525
Rp1526
ag2
(g6
S'D\xc2\xb3>'
p1527
tp1528
Rp1529
ag2
(g6
S'h\xcb\xa6>'
p1530
tp1531
Rp1532
ag2
(g6
S'\x987\xa2>'
p1533
tp1534
Rp1535
ag2
(g6
S'\x88\xad\x9f>'
p1536
tp1537
Rp1538
ag2
(g6
S'\x90g\xa3>'
p1539
tp1540
Rp1541
ag2
(g6
S'\\\xd9\x9d>'
p1542
tp1543
Rp1544
ag2
(g6
S'\xd0\xde\xa3>'
p1545
tp1546
Rp1547
ag2
(g6
S'\xdc\xeb\x97>'
p1548
tp1549
Rp1550
ag2
(g6
S'\xfc\x9a\xb7>'
p1551
tp1552
Rp1553
ag2
(g6
S'\x10\x1a\x9d>'
p1554
tp1555
Rp1556
ag2
(g6
S'(]\xb8>'
p1557
tp1558
Rp1559
ag2
(g6
S'\xdc\xd6\xaa>'
p1560
tp1561
Rp1562
ag2
(g6
S'\x0c\xb4\xb1>'
p1563
tp1564
Rp1565
ag2
(g6
S' \xd6\xbd>'
p1566
tp1567
Rp1568
ag2
(g6
S'X<\xb4>'
p1569
tp1570
Rp1571
ag2
(g6
S'\xec\x08\xa3>'
p1572
tp1573
Rp1574
ag2
(g6
S'\xc4\xd8\xaa>'
p1575
tp1576
Rp1577
ag2
(g6
S'P\xfb\xa1>'
p1578
tp1579
Rp1580
ag2
(g6
S'\x84\x90\xae>'
p1581
tp1582
Rp1583
ag2
(g6
S'h\r\xbe>'
p1584
tp1585
Rp1586
ag2
(g6
S'\xc4\xe6\x9b>'
p1587
tp1588
Rp1589
ag2
(g6
S'\x10\xef\xc9>'
p1590
tp1591
Rp1592
ag2
(g6
S'\xcc\xff\xad>'
p1593
tp1594
Rp1595
ag2
(g6
S'\xe0\xcf\xc0>'
p1596
tp1597
Rp1598
ag2
(g6
S'\x80(\xad>'
p1599
tp1600
Rp1601
ag2
(g6
S'\xfc\x87\xa6>'
p1602
tp1603
Rp1604
ag2
(g6
S'T\xaa\xab>'
p1605
tp1606
Rp1607
ag2
(g6
S'\xd8S\xa8>'
p1608
tp1609
Rp1610
ag2
(g6
S'4\xe2\xb4>'
p1611
tp1612
Rp1613
ag2
(g6
S'\xc4Y\xa3>'
p1614
tp1615
Rp1616
ag2
(g6
S'dp\x9c>'
p1617
tp1618
Rp1619
ag2
(g6
S'\x94\xf0\xaa>'
p1620
tp1621
Rp1622
ag2
(g6
S'\x84\x1e\xa7>'
p1623
tp1624
Rp1625
ag2
(g6
S'\xe8\xdd\xa9>'
p1626
tp1627
Rp1628
ag2
(g6
S'x\xd2\xab>'
p1629
tp1630
Rp1631
ag2
(g6
S'\xa8\xbd\xa7>'
p1632
tp1633
Rp1634
ag2
(g6
S'$~\xa8>'
p1635
tp1636
Rp1637
ag2
(g6
S' \x9e\xa5>'
p1638
tp1639
Rp1640
ag2
(g6
S'@\x8a\xb9>'
p1641
tp1642
Rp1643
ag2
(g6
S'\\b\x9e>'
p1644
tp1645
Rp1646
ag2
(g6
S'\xcc\xe9\x98>'
p1647
tp1648
Rp1649
ag2
(g6
S'X\x9f\xae>'
p1650
tp1651
Rp1652
ag2
(g6
S'\xd0\xab\x9f>'
p1653
tp1654
Rp1655
ag2
(g6
S'\xa4{\xa8>'
p1656
tp1657
Rp1658
ag2
(g6
S'\xccj\xa1>'
p1659
tp1660
Rp1661
ag2
(g6
S'<\xc6\xa2>'
p1662
tp1663
Rp1664
ag2
(g6
S',>\xa3>'
p1665
tp1666
Rp1667
ag2
(g6
S'\xb8\x12\xac>'
p1668
tp1669
Rp1670
ag2
(g6
S'H\xae\xb5>'
p1671
tp1672
Rp1673
ag2
(g6
S'\xa8\xdf\xa2>'
p1674
tp1675
Rp1676
ag2
(g6
S'\xd4\x1e\xba>'
p1677
tp1678
Rp1679
ag2
(g6
S'$r\x9b>'
p1680
tp1681
Rp1682
ag2
(g6
S'\x84\x1e\xa8>'
p1683
tp1684
Rp1685
ag2
(g6
S'\xb8c\xa3>'
p1686
tp1687
Rp1688
ag2
(g6
S'\xd4\xd5\xa7>'
p1689
tp1690
Rp1691
ag2
(g6
S'@q\x9f>'
p1692
tp1693
Rp1694
ag2
(g6
S'x\xc7\xa9>'
p1695
tp1696
Rp1697
ag2
(g6
S'd\n\xa1>'
p1698
tp1699
Rp1700
ag2
(g6
S'p\x18\x9f>'
p1701
tp1702
Rp1703
ag2
(g6
S'\xb8\t\xae>'
p1704
tp1705
Rp1706
ag2
(g6
S'\xb8\x7f\xba>'
p1707
tp1708
Rp1709
ag2
(g6
S'|\xe4\xa4>'
p1710
tp1711
Rp1712
ag2
(g6
S'80\xa2>'
p1713
tp1714
Rp1715
ag2
(g6
S'\xe0\xc6\xa2>'
p1716
tp1717
Rp1718
ag2
(g6
S'\xcc\x88\xa4>'
p1719
tp1720
Rp1721
ag2
(g6
S'\xc0v\xa4>'
p1722
tp1723
Rp1724
ag2
(g6
S'\xfc\xd2\x96>'
p1725
tp1726
Rp1727
ag2
(g6
S'\xd4a\xac>'
p1728
tp1729
Rp1730
ag2
(g6
S',\x84\xb6>'
p1731
tp1732
Rp1733
ag2
(g6
S'\x04\x81\xaa>'
p1734
tp1735
Rp1736
ag2
(g6
S'\xf8b\x94>'
p1737
tp1738
Rp1739
ag2
(g6
S'p\x8b\xa4>'
p1740
tp1741
Rp1742
ag2
(g6
S'(_\xa5>'
p1743
tp1744
Rp1745
ag2
(g6
S'd\x99\x9a>'
p1746
tp1747
Rp1748
ag2
(g6
S'\x84C\xad>'
p1749
tp1750
Rp1751
ag2
(g6
S'$M\xb3>'
p1752
tp1753
Rp1754
ag2
(g6
S'\x884\xb6>'
p1755
tp1756
Rp1757
ag2
(g6
S'\xecZ\x9a>'
p1758
tp1759
Rp1760
ag2
(g6
S'(Q\xac>'
p1761
tp1762
Rp1763
ag2
(g6
S'\x18\xcc\xa6>'
p1764
tp1765
Rp1766
ag2
(g6
S'\xbc<\x9c>'
p1767
tp1768
Rp1769
ag2
(g6
S'\\\x10\xad>'
p1770
tp1771
Rp1772
ag2
(g6
S'\xb8\xb3\xa4>'
p1773
tp1774
Rp1775
ag2
(g6
S'\xa8\xb1\x95>'
p1776
tp1777
Rp1778
ag2
(g6
S' \xcf\x9f>'
p1779
tp1780
Rp1781
ag2
(g6
S' \xa3\xa1>'
p1782
tp1783
Rp1784
ag2
(g6
S'\x00\xb6\xa2>'
p1785
tp1786
Rp1787
ag2
(g6
S'<N\xa6>'
p1788
tp1789
Rp1790
ag2
(g6
S'\\\x9d\x98>'
p1791
tp1792
Rp1793
ag2
(g6
S'\xd8\x1d\xa3>'
p1794
tp1795
Rp1796
ag2
(g6
S'\xc8\x8f\xae>'
p1797
tp1798
Rp1799
ag2
(g6
S'0\x1e\xb9>'
p1800
tp1801
Rp1802
ag2
(g6
S'4\x12\xa0>'
p1803
tp1804
Rp1805
ag2
(g6
S'\x9c\xd5\x9d>'
p1806
tp1807
Rp1808
ag2
(g6
S'@\x0f\xa5>'
p1809
tp1810
Rp1811
ag2
(g6
S'\\\xa3\xb2>'
p1812
tp1813
Rp1814
ag2
(g6
S'he\xaf>'
p1815
tp1816
Rp1817
ag2
(g6
S'@\xb8\x95>'
p1818
tp1819
Rp1820
ag2
(g6
S'la\xa6>'
p1821
tp1822
Rp1823
ag2
(g6
S'\xd8\xdd\x98>'
p1824
tp1825
Rp1826
ag2
(g6
S'\xb0\xcf\xa0>'
p1827
tp1828
Rp1829
ag2
(g6
S'd\xfb\xb0>'
p1830
tp1831
Rp1832
ag2
(g6
S'\x8c\x9d\xa3>'
p1833
tp1834
Rp1835
ag2
(g6
S'\xb8\xca\x9e>'
p1836
tp1837
Rp1838
ag2
(g6
S'\x04\xa4\xb2>'
p1839
tp1840
Rp1841
ag2
(g6
S'\x10\xae\x98>'
p1842
tp1843
Rp1844
ag2
(g6
S'\xa0\xcf\xb3>'
p1845
tp1846
Rp1847
ag2
(g6
S' j\xa0>'
p1848
tp1849
Rp1850
ag2
(g6
S'\xc8\xab\x9f>'
p1851
tp1852
Rp1853
ag2
(g6
S'\xec\n\x9f>'
p1854
tp1855
Rp1856
ag2
(g6
S'\x08\x99\xb8>'
p1857
tp1858
Rp1859
ag2
(g6
S'\x08\xdf\xa2>'
p1860
tp1861
Rp1862
ag2
(g6
S'x\x95\xb0>'
p1863
tp1864
Rp1865
ag2
(g6
S'$]\xa4>'
p1866
tp1867
Rp1868
ag2
(g6
S',\xd3\xa8>'
p1869
tp1870
Rp1871
ag2
(g6
S'p\xaa\x9f>'
p1872
tp1873
Rp1874
ag2
(g6
S'\xf4{\xa6>'
p1875
tp1876
Rp1877
ag2
(g6
S'\xe0\xcb\xa4>'
p1878
tp1879
Rp1880
ag2
(g6
S'\x1ch\x9e>'
p1881
tp1882
Rp1883
ag2
(g6
S'\x08$\xa5>'
p1884
tp1885
Rp1886
ag2
(g6
S'\x04\xc6\xbc>'
p1887
tp1888
Rp1889
ag2
(g6
S'lt\xaa>'
p1890
tp1891
Rp1892
ag2
(g6
S'\xa4\x99\x9a>'
p1893
tp1894
Rp1895
ag2
(g6
S'\xf8\xe7\x95>'
p1896
tp1897
Rp1898
ag2
(g6
S'P\xbc\xa4>'
p1899
tp1900
Rp1901
ag2
(g6
S'`.\xb0>'
p1902
tp1903
Rp1904
ag2
(g6
S'D\xc3\xad>'
p1905
tp1906
Rp1907
ag2
(g6
S'\x90\x8b\xb1>'
p1908
tp1909
Rp1910
ag2
(g6
S'l\xf5\xa9>'
p1911
tp1912
Rp1913
ag2
(g6
S'\xe0\xfc\xa8>'
p1914
tp1915
Rp1916
ag2
(g6
S'\xe0\x91\x9e>'
p1917
tp1918
Rp1919
ag2
(g6
S'\xc8\x9f\x96>'
p1920
tp1921
Rp1922
ag2
(g6
S'\xf4\xb5\xa0>'
p1923
tp1924
Rp1925
ag2
(g6
S'lO\x90>'
p1926
tp1927
Rp1928
ag2
(g6
S'\x185\xa3>'
p1929
tp1930
Rp1931
ag2
(g6
S'\xb8E\xae>'
p1932
tp1933
Rp1934
ag2
(g6
S'd\xf9\xa7>'
p1935
tp1936
Rp1937
ag2
(g6
S'\xf8\xe1\xa2>'
p1938
tp1939
Rp1940
ag2
(g6
S'\xc8\x0f\xaa>'
p1941
tp1942
Rp1943
ag2
(g6
S'p\x18\xb3>'
p1944
tp1945
Rp1946
ag2
(g6
S'\x00Q\xa1>'
p1947
tp1948
Rp1949
ag2
(g6
S'\xe4\xc3\xb0>'
p1950
tp1951
Rp1952
ag2
(g6
S'h\xf3\xa6>'
p1953
tp1954
Rp1955
ag2
(g6
S'\xf8\x90\x9b>'
p1956
tp1957
Rp1958
ag2
(g6
S'\xd4\x0f\xab>'
p1959
tp1960
Rp1961
ag2
(g6
S'\x0c8\xa4>'
p1962
tp1963
Rp1964
ag2
(g6
S'\xbc\xa2\xa5>'
p1965
tp1966
Rp1967
ag2
(g6
S'\x04N\xad>'
p1968
tp1969
Rp1970
ag2
(g6
S'\xc0\xfa\xa4>'
p1971
tp1972
Rp1973
ag2
(g6
S'(\xb0\xa6>'
p1974
tp1975
Rp1976
ag2
(g6
S'\x84\x00\xa8>'
p1977
tp1978
Rp1979
ag2
(g6
S'\x88\x83\xa5>'
p1980
tp1981
Rp1982
ag2
(g6
S'\xa0\x91\xa5>'
p1983
tp1984
Rp1985
ag2
(g6
S'\x98\xc0\xa5>'
p1986
tp1987
Rp1988
ag2
(g6
S"x'\xa6>"
p1989
tp1990
Rp1991
ag2
(g6
S"H'\xa3>"
p1992
tp1993
Rp1994
ag2
(g6
S'l\x05\xa2>'
p1995
tp1996
Rp1997
ag2
(g6
S'\x0ce\xc3>'
p1998
tp1999
Rp2000
ag2
(g6
S'\x8c\x04\xa5>'
p2001
tp2002
Rp2003
ag2
(g6
S',\xfd\xa5>'
p2004
tp2005
Rp2006
ag2
(g6
S'\xdcW\xaa>'
p2007
tp2008
Rp2009
ag2
(g6
S'\xe02\xab>'
p2010
tp2011
Rp2012
ag2
(g6
S'\x14\x1a\xa2>'
p2013
tp2014
Rp2015
ag2
(g6
S'\xa8\x14\x92>'
p2016
tp2017
Rp2018
ag2
(g6
S'<\xce\xa6>'
p2019
tp2020
Rp2021
ag2
(g6
S'\x10\xb1\x9d>'
p2022
tp2023
Rp2024
ag2
(g6
S't\xb3\xa0>'
p2025
tp2026
Rp2027
ag2
(g6
S'lq\xa5>'
p2028
tp2029
Rp2030
ag2
(g6
S'$H\x9f>'
p2031
tp2032
Rp2033
ag2
(g6
S'\x84M\xaa>'
p2034
tp2035
Rp2036
ag2
(g6
S'$\xf1\x9f>'
p2037
tp2038
Rp2039
ag2
(g6
S'\x0c\xcf\x95>'
p2040
tp2041
Rp2042
ag2
(g6
S'\xf8h\x9d>'
p2043
tp2044
Rp2045
ag2
(g6
S'h=\xa2>'
p2046
tp2047
Rp2048
ag2
(g6
S'\xa4y\xb6>'
p2049
tp2050
Rp2051
ag2
(g6
S'\xe0B\x9f>'
p2052
tp2053
Rp2054
ag2
(g6
S'\xc0\x1a\xa0>'
p2055
tp2056
Rp2057
ag2
(g6
S'\xd4\xd8\x9e>'
p2058
tp2059
Rp2060
ag2
(g6
S'\xf8\xa8\xa1>'
p2061
tp2062
Rp2063
ag2
(g6
S'\x98l\xaa>'
p2064
tp2065
Rp2066
ag2
(g6
S'\x0cb\xaa>'
p2067
tp2068
Rp2069
ag2
(g6
S'\xe4\x01\xa6>'
p2070
tp2071
Rp2072
ag2
(g6
S'`\xbb\xc1>'
p2073
tp2074
Rp2075
ag2
(g6
S'\xacB\xac>'
p2076
tp2077
Rp2078
ag2
(g6
S'\x10E\xa7>'
p2079
tp2080
Rp2081
ag2
(g6
S'T\xe0\xa7>'
p2082
tp2083
Rp2084
ag2
(g6
S' B\xa2>'
p2085
tp2086
Rp2087
ag2
(g6
S',\xd3\xac>'
p2088
tp2089
Rp2090
ag2
(g6
S'\xe0\xf1\xa4>'
p2091
tp2092
Rp2093
ag2
(g6
S'H"\xb3>'
p2094
tp2095
Rp2096
ag2
(g6
S'\xac\xc1\xa3>'
p2097
tp2098
Rp2099
ag2
(g6
S'\xc4\x1d\x9d>'
p2100
tp2101
Rp2102
ag2
(g6
S'\xa0w\xa4>'
p2103
tp2104
Rp2105
ag2
(g6
S'\xd4k\xb2>'
p2106
tp2107
Rp2108
ag2
(g6
S',\xef\xb4>'
p2109
tp2110
Rp2111
ag2
(g6
S'T\xac\x9f>'
p2112
tp2113
Rp2114
ag2
(g6
S'\xfc\xca\xa6>'
p2115
tp2116
Rp2117
ag2
(g6
S'\xd8\x97\xae>'
p2118
tp2119
Rp2120
ag2
(g6
S'\xcc\xbd\xa6>'
p2121
tp2122
Rp2123
ag2
(g6
S'D\x10\x9c>'
p2124
tp2125
Rp2126
ag2
(g6
S'\xb0\xcb\x9f>'
p2127
tp2128
Rp2129
ag2
(g6
S'\xac\xea\xb2>'
p2130
tp2131
Rp2132
ag2
(g6
S'\xc0J\xa2>'
p2133
tp2134
Rp2135
ag2
(g6
S' \xdd\xa5>'
p2136
tp2137
Rp2138
ag2
(g6
S'd\xbc\x9f>'
p2139
tp2140
Rp2141
ag2
(g6
S'\x80\xb7\xa3>'
p2142
tp2143
Rp2144
ag2
(g6
S'\x04v\xa6>'
p2145
tp2146
Rp2147
ag2
(g6
S'\xd8\xaf\x93>'
p2148
tp2149
Rp2150
ag2
(g6
S'\x8c\xfc\x9f>'
p2151
tp2152
Rp2153
ag2
(g6
S'P\xbf\x9c>'
p2154
tp2155
Rp2156
ag2
(g6
S'\x88`\xac>'
p2157
tp2158
Rp2159
ag2
(g6
S't\xb2\xae>'
p2160
tp2161
Rp2162
ag2
(g6
S'\x10\xac\xb9>'
p2163
tp2164
Rp2165
ag2
(g6
S'4`\xb7>'
p2166
tp2167
Rp2168
ag2
(g6
S'T"\x94>'
p2169
tp2170
Rp2171
ag2
(g6
S'4\x8e\xb3>'
p2172
tp2173
Rp2174
ag2
(g6
S'\x08\xd1\xa5>'
p2175
tp2176
Rp2177
ag2
(g6
S'\xc4\x1f\x9c>'
p2178
tp2179
Rp2180
ag2
(g6
S'\x10,\xa7>'
p2181
tp2182
Rp2183
ag2
(g6
S'\x00\x82\xa9>'
p2184
tp2185
Rp2186
ag2
(g6
S'\xc4\xd1\xa8>'
p2187
tp2188
Rp2189
ag2
(g6
S'\xf82\x9f>'
p2190
tp2191
Rp2192
ag2
(g6
S'\x8c\x1b\x9d>'
p2193
tp2194
Rp2195
ag2
(g6
S'4\xfa\x90>'
p2196
tp2197
Rp2198
ag2
(g6
S'\xb4\x8e\xa4>'
p2199
tp2200
Rp2201
ag2
(g6
S'd@\xa1>'
p2202
tp2203
Rp2204
ag2
(g6
S',\xe2\x9b>'
p2205
tp2206
Rp2207
ag2
(g6
S'\xa0"\xaa>'
p2208
tp2209
Rp2210
ag2
(g6
S'd\xc4\xa8>'
p2211
tp2212
Rp2213
ag2
(g6
S'\xec{\xa0>'
p2214
tp2215
Rp2216
ag2
(g6
S'\xd8\x81\xa6>'
p2217
tp2218
Rp2219
ag2
(g6
S'\x88w\x92>'
p2220
tp2221
Rp2222
ag2
(g6
S'47\xba>'
p2223
tp2224
Rp2225
ag2
(g6
S' \xe9\xac>'
p2226
tp2227
Rp2228
ag2
(g6
S'\xf8\xb7\xa3>'
p2229
tp2230
Rp2231
ag2
(g6
S'X\x9f\xab>'
p2232
tp2233
Rp2234
ag2
(g6
S'\x9c\xc8\x9c>'
p2235
tp2236
Rp2237
ag2
(g6
S'\xf0\xb3\xb8>'
p2238
tp2239
Rp2240
ag2
(g6
S'T\xf2\x9f>'
p2241
tp2242
Rp2243
ag2
(g6
S'\xe8f\xa6>'
p2244
tp2245
Rp2246
ag2
(g6
S'(\x9c\xa4>'
p2247
tp2248
Rp2249
ag2
(g6
S'\x88\x9f\xa1>'
p2250
tp2251
Rp2252
ag2
(g6
S'\x08\xf4\x97>'
p2253
tp2254
Rp2255
ag2
(g6
S'(\xb1\x99>'
p2256
tp2257
Rp2258
ag2
(g6
S' \xca\xae>'
p2259
tp2260
Rp2261
ag2
(g6
S'\xa0\xab\x95>'
p2262
tp2263
Rp2264
ag2
(g6
S'\xd4j\x99>'
p2265
tp2266
Rp2267
ag2
(g6
S'Pu\xb1>'
p2268
tp2269
Rp2270
ag2
(g6
S'x\x89\x9a>'
p2271
tp2272
Rp2273
ag2
(g6
S'\xc07\x9a>'
p2274
tp2275
Rp2276
ag2
(g6
S'\xcc\x8c\xb2>'
p2277
tp2278
Rp2279
ag2
(g6
S'\xc0W\xa8>'
p2280
tp2281
Rp2282
ag2
(g6
S'\xf8\xa4\x9f>'
p2283
tp2284
Rp2285
ag2
(g6
S' \xa8\x9d>'
p2286
tp2287
Rp2288
ag2
(g6
S'P7\x9e>'
p2289
tp2290
Rp2291
ag2
(g6
S'\xa8\x07\xa8>'
p2292
tp2293
Rp2294
ag2
(g6
S'\xa4\xfd\xa8>'
p2295
tp2296
Rp2297
ag2
(g6
S'\x1c\x8c\xa2>'
p2298
tp2299
Rp2300
ag2
(g6
S'\xb0\xf9\x9e>'
p2301
tp2302
Rp2303
ag2
(g6
S'\xb0\xeb\xb0>'
p2304
tp2305
Rp2306
ag2
(g6
S'\x180\xac>'
p2307
tp2308
Rp2309
ag2
(g6
S'|\x07\xad>'
p2310
tp2311
Rp2312
ag2
(g6
S'\xbc\xa6\x9f>'
p2313
tp2314
Rp2315
ag2
(g6
S'D\xaa\x97>'
p2316
tp2317
Rp2318
ag2
(g6
S'X\xe4\xc6>'
p2319
tp2320
Rp2321
ag2
(g6
S'\x84\xc4\x9a>'
p2322
tp2323
Rp2324
ag2
(g6
S'4V\x96>'
p2325
tp2326
Rp2327
ag2
(g6
S'\xb4h\x9f>'
p2328
tp2329
Rp2330
ag2
(g6
S'\xbc\xa3\x9c>'
p2331
tp2332
Rp2333
ag2
(g6
S'|`\xa5>'
p2334
tp2335
Rp2336
ag2
(g6
S'\xb4\xa0\xad>'
p2337
tp2338
Rp2339
ag2
(g6
S'|\x90\x97>'
p2340
tp2341
Rp2342
ag2
(g6
S'\xc0b\xa7>'
p2343
tp2344
Rp2345
ag2
(g6
S't\xd5\xba>'
p2346
tp2347
Rp2348
ag2
(g6
S'4"\x9c>'
p2349
tp2350
Rp2351
ag2
(g6
S'h\x15\x91>'
p2352
tp2353
Rp2354
ag2
(g6
S'\xd4\xab\xad>'
p2355
tp2356
Rp2357
ag2
(g6
S'8\xea\xa6>'
p2358
tp2359
Rp2360
ag2
(g6
S'(9\xa6>'
p2361
tp2362
Rp2363
ag2
(g6
S'\xa8\x80\xb8>'
p2364
tp2365
Rp2366
ag2
(g6
S'\xcc\x84\xa3>'
p2367
tp2368
Rp2369
ag2
(g6
S'\xe0\xaa\xad>'
p2370
tp2371
Rp2372
ag2
(g6
S'\xd8\x7f\xa7>'
p2373
tp2374
Rp2375
ag2
(g6
S'L\xad\xaf>'
p2376
tp2377
Rp2378
ag2
(g6
S'\xf8\x94\x99>'
p2379
tp2380
Rp2381
ag2
(g6
S'\xa8\xf4\x96>'
p2382
tp2383
Rp2384
ag2
(g6
S'(X\xa6>'
p2385
tp2386
Rp2387
ag2
(g6
S',\x9e\xa5>'
p2388
tp2389
Rp2390
ag2
(g6
S'l\x81\x9f>'
p2391
tp2392
Rp2393
ag2
(g6
S'\xd8\xfb\xa0>'
p2394
tp2395
Rp2396
ag2
(g6
S'$L\xaa>'
p2397
tp2398
Rp2399
ag2
(g6
S'p<\xac>'
p2400
tp2401
Rp2402
ag2
(g6
S'\x1c\xec\x99>'
p2403
tp2404
Rp2405
ag2
(g6
S'Lh\xb3>'
p2406
tp2407
Rp2408
ag2
(g6
S'\xb8\xfe\xa3>'
p2409
tp2410
Rp2411
ag2
(g6
S',\xc2\xa6>'
p2412
tp2413
Rp2414
ag2
(g6
S'\xd4\x7f\xa1>'
p2415
tp2416
Rp2417
ag2
(g6
S'\xece\xaf>'
p2418
tp2419
Rp2420
ag2
(g6
S'\x88>\xa8>'
p2421
tp2422
Rp2423
ag2
(g6
S'@\xbb\xa2>'
p2424
tp2425
Rp2426
ag2
(g6
S'\xcc\xd4\x91>'
p2427
tp2428
Rp2429
ag2
(g6
S'\x80\x07\xb0>'
p2430
tp2431
Rp2432
ag2
(g6
S'l\xdd\xa5>'
p2433
tp2434
Rp2435
ag2
(g6
S'\x94\xa7\xa5>'
p2436
tp2437
Rp2438
ag2
(g6
S'\x8c.\x9e>'
p2439
tp2440
Rp2441
ag2
(g6
S'H\xa7\xa2>'
p2442
tp2443
Rp2444
ag2
(g6
S'\x84&\x96>'
p2445
tp2446
Rp2447
ag2
(g6
S'|\xea\xa7>'
p2448
tp2449
Rp2450
ag2
(g6
S'\xc8\xca\xa4>'
p2451
tp2452
Rp2453
ag2
(g6
S'\x08\xf1\x9e>'
p2454
tp2455
Rp2456
ag2
(g6
S'\xa8_\xa8>'
p2457
tp2458
Rp2459
ag2
(g6
S'l\x06\x9f>'
p2460
tp2461
Rp2462
ag2
(g6
S"\x94'\xa9>"
p2463
tp2464
Rp2465
ag2
(g6
S'\x90\xbe\x9a>'
p2466
tp2467
Rp2468
ag2
(g6
S'\xcc\x83\xb3>'
p2469
tp2470
Rp2471
ag2
(g6
S'\x84\xa3\xb6>'
p2472
tp2473
Rp2474
ag2
(g6
S'\x1c\xab\xa3>'
p2475
tp2476
Rp2477
ag2
(g6
S'\x10g\x95>'
p2478
tp2479
Rp2480
ag2
(g6
S'\x14z\xab>'
p2481
tp2482
Rp2483
ag2
(g6
S'`\x11\x99>'
p2484
tp2485
Rp2486
ag2
(g6
S'\xccG\xb1>'
p2487
tp2488
Rp2489
ag2
(g6
S'<N\x99>'
p2490
tp2491
Rp2492
ag2
(g6
S'tW\xa7>'
p2493
tp2494
Rp2495
ag2
(g6
S'\x18/\x91>'
p2496
tp2497
Rp2498
ag2
(g6
S'H\xb9\xa4>'
p2499
tp2500
Rp2501
ag2
(g6
S'\x9c8\xa6>'
p2502
tp2503
Rp2504
ag2
(g6
S'\xc0\x06\xab>'
p2505
tp2506
Rp2507
ag2
(g6
S't\\\xad>'
p2508
tp2509
Rp2510
ag2
(g6
S'\xa0\xf1\x9f>'
p2511
tp2512
Rp2513
ag2
(g6
S'\xbc\xf2\x9a>'
p2514
tp2515
Rp2516
ag2
(g6
S'\xc0\xe5\x9b>'
p2517
tp2518
Rp2519
ag2
(g6
S'\xd0G\xa1>'
p2520
tp2521
Rp2522
ag2
(g6
S'\x9c\x07\xa9>'
p2523
tp2524
Rp2525
ag2
(g6
S'0\x8c\x97>'
p2526
tp2527
Rp2528
ag2
(g6
S'\xa0\xe3\x9f>'
p2529
tp2530
Rp2531
ag2
(g6
S'\xc8\xdc\xad>'
p2532
tp2533
Rp2534
ag2
(g6
S'\x08\x11\xaf>'
p2535
tp2536
Rp2537
ag2
(g6
S'\x10#\xa6>'
p2538
tp2539
Rp2540
ag2
(g6
S'\x08\x81\xb0>'
p2541
tp2542
Rp2543
ag2
(g6
S'8=\xa8>'
p2544
tp2545
Rp2546
ag2
(g6
S'\x90\xfe\xaa>'
p2547
tp2548
Rp2549
ag2
(g6
S'\xdc\x1c\xa8>'
p2550
tp2551
Rp2552
ag2
(g6
S'\xfc\x9f\x95>'
p2553
tp2554
Rp2555
ag2
(g6
S'PZ\xa1>'
p2556
tp2557
Rp2558
ag2
(g6
S'\x08/\xa8>'
p2559
tp2560
Rp2561
ag2
(g6
S'`}\x98>'
p2562
tp2563
Rp2564
ag2
(g6
S'\xec\x93\xa3>'
p2565
tp2566
Rp2567
ag2
(g6
S'`\x14\xa4>'
p2568
tp2569
Rp2570
ag2
(g6
S'h\x1c\x9b>'
p2571
tp2572
Rp2573
ag2
(g6
S'\xd0\xa7\xa3>'
p2574
tp2575
Rp2576
ag2
(g6
S'TI\x9e>'
p2577
tp2578
Rp2579
ag2
(g6
S'\xd4(\xaf>'
p2580
tp2581
Rp2582
ag2
(g6
S'H,\xa0>'
p2583
tp2584
Rp2585
ag2
(g6
S'\xcc\xaf\x97>'
p2586
tp2587
Rp2588
ag2
(g6
S'\x00\xa1\xb0>'
p2589
tp2590
Rp2591
ag2
(g6
S'\x80\xcf\xa5>'
p2592
tp2593
Rp2594
ag2
(g6
S'p\x03\x97>'
p2595
tp2596
Rp2597
ag2
(g6
S'\xb8p\x9e>'
p2598
tp2599
Rp2600
ag2
(g6
S'\xdc%\x9f>'
p2601
tp2602
Rp2603
ag2
(g6
S'T\xa6\xab>'
p2604
tp2605
Rp2606
ag2
(g6
S'\x88\x03\x9a>'
p2607
tp2608
Rp2609
ag2
(g6
S'\xec\xe6\xb2>'
p2610
tp2611
Rp2612
ag2
(g6
S'\xf0p\x9f>'
p2613
tp2614
Rp2615
ag2
(g6
S'D[\xa2>'
p2616
tp2617
Rp2618
ag2
(g6
S'\x9c\xf6\x9d>'
p2619
tp2620
Rp2621
ag2
(g6
S'\xf4O\xad>'
p2622
tp2623
Rp2624
ag2
(g6
S'\xe8\xba\x9b>'
p2625
tp2626
Rp2627
ag2
(g6
S'x\xf0\xb1>'
p2628
tp2629
Rp2630
ag2
(g6
S'\xe4\xd6\xa6>'
p2631
tp2632
Rp2633
ag2
(g6
S'X\xf0\xaf>'
p2634
tp2635
Rp2636
ag2
(g6
S'\xb0\xb2\xa8>'
p2637
tp2638
Rp2639
ag2
(g6
S'4n\x99>'
p2640
tp2641
Rp2642
ag2
(g6
S'@L\x97>'
p2643
tp2644
Rp2645
ag2
(g6
S'0e\x9f>'
p2646
tp2647
Rp2648
ag2
(g6
S'\xdc\xc8\xa6>'
p2649
tp2650
Rp2651
ag2
(g6
S'\xa4\xbb\xa8>'
p2652
tp2653
Rp2654
ag2
(g6
S'dM\xb2>'
p2655
tp2656
Rp2657
ag2
(g6
S'P>\xa7>'
p2658
tp2659
Rp2660
ag2
(g6
S'\x0c\x07\x99>'
p2661
tp2662
Rp2663
ag2
(g6
S'Hu\xb2>'
p2664
tp2665
Rp2666
ag2
(g6
S'4\xd5\xa6>'
p2667
tp2668
Rp2669
ag2
(g6
S'4\xe6\xa3>'
p2670
tp2671
Rp2672
ag2
(g6
S'\xf8\xfa\xa8>'
p2673
tp2674
Rp2675
ag2
(g6
S'\xac\xc5\x98>'
p2676
tp2677
Rp2678
ag2
(g6
S'\x98\xe2\x94>'
p2679
tp2680
Rp2681
ag2
(g6
S'\xc0\xa2\xa2>'
p2682
tp2683
Rp2684
ag2
(g6
S'\xd0\x84\x99>'
p2685
tp2686
Rp2687
ag2
(g6
S'\x84\xef\x9e>'
p2688
tp2689
Rp2690
ag2
(g6
S'\xd0\xfb\xbb>'
p2691
tp2692
Rp2693
ag2
(g6
S'l\xbf\x9c>'
p2694
tp2695
Rp2696
ag2
(g6
S'\x90P\xa9>'
p2697
tp2698
Rp2699
ag2
(g6
S'\x84x\x96>'
p2700
tp2701
Rp2702
ag2
(g6
S'\x8c\x07\x99>'
p2703
tp2704
Rp2705
ag2
(g6
S'\x08\xe7\xad>'
p2706
tp2707
Rp2708
ag2
(g6
S'\xa0\x0b\xbb>'
p2709
tp2710
Rp2711
ag2
(g6
S'\xdc\x8f\xa9>'
p2712
tp2713
Rp2714
ag2
(g6
S'H\xea\xb4>'
p2715
tp2716
Rp2717
ag2
(g6
S'\xac\xb7\x9e>'
p2718
tp2719
Rp2720
ag2
(g6
S'\xd8\x08\xc5>'
p2721
tp2722
Rp2723
ag2
(g6
S'LB\xa3>'
p2724
tp2725
Rp2726
ag2
(g6
S'\x849\x9f>'
p2727
tp2728
Rp2729
ag2
(g6
S'\xb0\xa7\x90>'
p2730
tp2731
Rp2732
ag2
(g6
S'\xf8\x81\x9d>'
p2733
tp2734
Rp2735
ag2
(g6
S'\xe4\xab\xb2>'
p2736
tp2737
Rp2738
ag2
(g6
S'|\x11\xab>'
p2739
tp2740
Rp2741
ag2
(g6
S'\xf4\xab\xa2>'
p2742
tp2743
Rp2744
ag2
(g6
S'\xe4S\xa0>'
p2745
tp2746
Rp2747
ag2
(g6
S'\x00\xf1\x98>'
p2748
tp2749
Rp2750
ag2
(g6
S'\xd8\x1e\xa4>'
p2751
tp2752
Rp2753
ag2
(g6
S'\x94\xf2\xa6>'
p2754
tp2755
Rp2756
ag2
(g6
S'\x10\xab\xab>'
p2757
tp2758
Rp2759
ag2
(g6
S'(\x9f\xa9>'
p2760
tp2761
Rp2762
ag2
(g6
S'\x08\x86\xa4>'
p2763
tp2764
Rp2765
ag2
(g6
S'\xf0\x91\xa5>'
p2766
tp2767
Rp2768
ag2
(g6
S'\x0c\xe1\x9d>'
p2769
tp2770
Rp2771
ag2
(g6
S'H\xe6\x9d>'
p2772
tp2773
Rp2774
ag2
(g6
S'\x90\x97\xa5>'
p2775
tp2776
Rp2777
ag2
(g6
S'\x10P\xa7>'
p2778
tp2779
Rp2780
ag2
(g6
S'\xe8\xed\x8b>'
p2781
tp2782
Rp2783
ag2
(g6
S'\xa4|\x93>'
p2784
tp2785
Rp2786
ag2
(g6
S'\x8c#\xaa>'
p2787
tp2788
Rp2789
ag2
(g6
S'<\xbc\x9d>'
p2790
tp2791
Rp2792
ag2
(g6
S'd\xf9\xa0>'
p2793
tp2794
Rp2795
ag2
(g6
S'8U\xb2>'
p2796
tp2797
Rp2798
ag2
(g6
S'l\x9c\xab>'
p2799
tp2800
Rp2801
ag2
(g6
S'\x04\x7f\x9d>'
p2802
tp2803
Rp2804
ag2
(g6
S'P\xac\x9a>'
p2805
tp2806
Rp2807
ag2
(g6
S'\x14K\xa5>'
p2808
tp2809
Rp2810
ag2
(g6
S'DY\x96>'
p2811
tp2812
Rp2813
ag2
(g6
S'l\xa0\xaf>'
p2814
tp2815
Rp2816
ag2
(g6
S'\x08\xbd\xae>'
p2817
tp2818
Rp2819
ag2
(g6
S'D\xef\xa1>'
p2820
tp2821
Rp2822
ag2
(g6
S'\xb8\xc8\xa3>'
p2823
tp2824
Rp2825
ag2
(g6
S'\xb0 \xa6>'
p2826
tp2827
Rp2828
ag2
(g6
S'\x1c\xcc\x9a>'
p2829
tp2830
Rp2831
ag2
(g6
S'h\xf7\xa8>'
p2832
tp2833
Rp2834
ag2
(g6
S'\x14\x1d\xa3>'
p2835
tp2836
Rp2837
ag2
(g6
S'\x90\x81\xa4>'
p2838
tp2839
Rp2840
ag2
(g6
S'l\xd2\xa1>'
p2841
tp2842
Rp2843
ag2
(g6
S'\x80\x96\x9e>'
p2844
tp2845
Rp2846
ag2
(g6
S'4^\xa9>'
p2847
tp2848
Rp2849
ag2
(g6
S'p\xd3\x9c>'
p2850
tp2851
Rp2852
ag2
(g6
S'\xfc\x1a\xa5>'
p2853
tp2854
Rp2855
ag2
(g6
S'\x98\xce\xad>'
p2856
tp2857
Rp2858
ag2
(g6
S'\xd4G\xa3>'
p2859
tp2860
Rp2861
ag2
(g6
S'\xc8z\xab>'
p2862
tp2863
Rp2864
ag2
(g6
S' _\xa2>'
p2865
tp2866
Rp2867
ag2
(g6
S'\xb4\x85\x9a>'
p2868
tp2869
Rp2870
ag2
(g6
S'\xacu\x9c>'
p2871
tp2872
Rp2873
ag2
(g6
S'\xc8N\xaa>'
p2874
tp2875
Rp2876
ag2
(g6
S'\x14\xdd\xa5>'
p2877
tp2878
Rp2879
ag2
(g6
S'\x1c\x98\x94>'
p2880
tp2881
Rp2882
ag2
(g6
S'X\xb8\xa9>'
p2883
tp2884
Rp2885
ag2
(g6
S'\x80\x86\xa3>'
p2886
tp2887
Rp2888
ag2
(g6
S'\xa8\xc8\x99>'
p2889
tp2890
Rp2891
ag2
(g6
S'<\xee\x8d>'
p2892
tp2893
Rp2894
ag2
(g6
S'\xa4\xee\xae>'
p2895
tp2896
Rp2897
ag2
(g6
S'\xbcJ\x9b>'
p2898
tp2899
Rp2900
ag2
(g6
S'4^\x9c>'
p2901
tp2902
Rp2903
ag2
(g6
S'\xd8\xde\x99>'
p2904
tp2905
Rp2906
ag2
(g6
S'\xa0?\xa1>'
p2907
tp2908
Rp2909
ag2
(g6
S'\x0c^\x95>'
p2910
tp2911
Rp2912
ag2
(g6
S'\xb0{\xbc>'
p2913
tp2914
Rp2915
ag2
(g6
S'\xfc\xf3\xb6>'
p2916
tp2917
Rp2918
ag2
(g6
S'\x98\x9a\xa6>'
p2919
tp2920
Rp2921
ag2
(g6
S'\x00\x04\x94>'
p2922
tp2923
Rp2924
ag2
(g6
S'p\x8a\x91>'
p2925
tp2926
Rp2927
ag2
(g6
S'\xac\x86\xa4>'
p2928
tp2929
Rp2930
ag2
(g6
S'\xd4I\x97>'
p2931
tp2932
Rp2933
ag2
(g6
S'\xc8N\x9b>'
p2934
tp2935
Rp2936
ag2
(g6
S'H\x15\xa9>'
p2937
tp2938
Rp2939
ag2
(g6
S'\x8c\x83\xa2>'
p2940
tp2941
Rp2942
ag2
(g6
S'\x98x\x9e>'
p2943
tp2944
Rp2945
ag2
(g6
S'T\x1b\x86>'
p2946
tp2947
Rp2948
ag2
(g6
S'\xf0\x05\xb9>'
p2949
tp2950
Rp2951
ag2
(g6
S'\xf4\x14\xa6>'
p2952
tp2953
Rp2954
ag2
(g6
S'x>\xae>'
p2955
tp2956
Rp2957
ag2
(g6
S'\x8cL\xa6>'
p2958
tp2959
Rp2960
ag2
(g6
S'\xb4\x90\xa8>'
p2961
tp2962
Rp2963
ag2
(g6
S'\xc0z\x9e>'
p2964
tp2965
Rp2966
ag2
(g6
S'\xf8\xaf\x9a>'
p2967
tp2968
Rp2969
ag2
(g6
S'\xa8\xa1\x9b>'
p2970
tp2971
Rp2972
ag2
(g6
S'T\x17\xa6>'
p2973
tp2974
Rp2975
ag2
(g6
S'dQ\xa6>'
p2976
tp2977
Rp2978
ag2
(g6
S'|I\xa0>'
p2979
tp2980
Rp2981
ag2
(g6
S'\x8c\xf3\x9a>'
p2982
tp2983
Rp2984
ag2
(g6
S'\x9c\xc6\xb3>'
p2985
tp2986
Rp2987
ag2
(g6
S'\xf8\x8a\xaa>'
p2988
tp2989
Rp2990
ag2
(g6
S'T\x8b\x9d>'
p2991
tp2992
Rp2993
ag2
(g6
S'4\xfc\xac>'
p2994
tp2995
Rp2996
ag2
(g6
S'\x90L\xb2>'
p2997
tp2998
Rp2999
ag2
(g6
S't\xb3\xb0>'
p3000
tp3001
Rp3002
ag2
(g6
S'\x9cC\x9c>'
p3003
tp3004
Rp3005
ag2
(g6
S'\x84\x1a\xad>'
p3006
tp3007
Rp3008
ag2
(g6
S'(+\x9b>'
p3009
tp3010
Rp3011
ag2
(g6
S'\xcc\xd9\x9e>'
p3012
tp3013
Rp3014
ag2
(g6
S'\x045\xaa>'
p3015
tp3016
Rp3017
ag2
(g6
S'\x0cn\xa6>'
p3018
tp3019
Rp3020
ag2
(g6
S'\xe4G\x9d>'
p3021
tp3022
Rp3023
ag2
(g6
S'\xfc \xa8>'
p3024
tp3025
Rp3026
ag2
(g6
S'\xac-\x92>'
p3027
tp3028
Rp3029
ag2
(g6
S' \xc7\x9b>'
p3030
tp3031
Rp3032
ag2
(g6
S'\x84\xf4\x9c>'
p3033
tp3034
Rp3035
ag2
(g6
S'@e\xab>'
p3036
tp3037
Rp3038
ag2
(g6
S'P>\xb4>'
p3039
tp3040
Rp3041
ag2
(g6
S'\xd0\xf2\xaa>'
p3042
tp3043
Rp3044
ag2
(g6
S'\x88\xdb\xa6>'
p3045
tp3046
Rp3047
ag2
(g6
S'\xb0E\xa5>'
p3048
tp3049
Rp3050
ag2
(g6
S'\xdce\x8f>'
p3051
tp3052
Rp3053
ag2
(g6
S'(&\xad>'
p3054
tp3055
Rp3056
ag2
(g6
S'\xf4\x81\x9b>'
p3057
tp3058
Rp3059
ag2
(g6
S'\xbc\xac\x99>'
p3060
tp3061
Rp3062
ag2
(g6
S' \xaa\xa3>'
p3063
tp3064
Rp3065
ag2
(g6
S'\xf8\x11\xa7>'
p3066
tp3067
Rp3068
ag2
(g6
S'p\x1e\xa1>'
p3069
tp3070
Rp3071
ag2
(g6
S'\xa8T\xa5>'
p3072
tp3073
Rp3074
ag2
(g6
S'\xc0\xdc\x9e>'
p3075
tp3076
Rp3077
ag2
(g6
S'\x98\xdc\xc1>'
p3078
tp3079
Rp3080
ag2
(g6
S'|\xf4\x96>'
p3081
tp3082
Rp3083
ag2
(g6
S'L\x16\xa0>'
p3084
tp3085
Rp3086
ag2
(g6
S'\xf4i\xad>'
p3087
tp3088
Rp3089
ag2
(g6
S'Ht\xae>'
p3090
tp3091
Rp3092
ag2
(g6
S'\xbc\xa0\x9f>'
p3093
tp3094
Rp3095
ag2
(g6
S'X\x1b\xa2>'
p3096
tp3097
Rp3098
ag2
(g6
S'Xv\xad>'
p3099
tp3100
Rp3101
ag2
(g6
S'p\x11\xaa>'
p3102
tp3103
Rp3104
ag2
(g6
S'\x10\xb6\x95>'
p3105
tp3106
Rp3107
ag2
(g6
S'\xa4C\xa5>'
p3108
tp3109
Rp3110
ag2
(g6
S'8\x00\x9a>'
p3111
tp3112
Rp3113
ag2
(g6
S'\x80\n\xa2>'
p3114
tp3115
Rp3116
ag2
(g6
S'ts\x9a>'
p3117
tp3118
Rp3119
ag2
(g6
S'\x8c\xeb\x9f>'
p3120
tp3121
Rp3122
ag2
(g6
S'4r\x99>'
p3123
tp3124
Rp3125
ag2
(g6
S'\x14q\x94>'
p3126
tp3127
Rp3128
ag2
(g6
S'\xf8\xe6\xb5>'
p3129
tp3130
Rp3131
ag2
(g6
S'\\N\xa9>'
p3132
tp3133
Rp3134
ag2
(g6
S'L\xd3\xa5>'
p3135
tp3136
Rp3137
ag2
(g6
S'8\xb4\xa1>'
p3138
tp3139
Rp3140
ag2
(g6
S'\x94\xff\x9a>'
p3141
tp3142
Rp3143
ag2
(g6
S't\xf4\x97>'
p3144
tp3145
Rp3146
ag2
(g6
S' ^\xa7>'
p3147
tp3148
Rp3149
ag2
(g6
S'\x88\xe6\x84>'
p3150
tp3151
Rp3152
ag2
(g6
S'\xec\xaf\x97>'
p3153
tp3154
Rp3155
ag2
(g6
S'\xe8\xa5\x9a>'
p3156
tp3157
Rp3158
ag2
(g6
S'p\xd8\xac>'
p3159
tp3160
Rp3161
ag2
(g6
S'p<\xad>'
p3162
tp3163
Rp3164
ag2
(g6
S'\x08\xbc\xb2>'
p3165
tp3166
Rp3167
ag2
(g6
S'd\\\x9a>'
p3168
tp3169
Rp3170
ag2
(g6
S'tO\x95>'
p3171
tp3172
Rp3173
ag2
(g6
S'@+\xa7>'
p3174
tp3175
Rp3176
ag2
(g6
S'\xcc\x06\xa3>'
p3177
tp3178
Rp3179
ag2
(g6
S'\xa0u\x9c>'
p3180
tp3181
Rp3182
ag2
(g6
S'\xa0g\xb2>'
p3183
tp3184
Rp3185
ag2
(g6
S't\xfe\xa2>'
p3186
tp3187
Rp3188
ag2
(g6
S'\xa8\\\xab>'
p3189
tp3190
Rp3191
ag2
(g6
S'\x80\x8c\xab>'
p3192
tp3193
Rp3194
ag2
(g6
S'\xf4\xee\xa0>'
p3195
tp3196
Rp3197
ag2
(g6
S'\xa4\x02\xa0>'
p3198
tp3199
Rp3200
ag2
(g6
S'\xf8\xa3\x9e>'
p3201
tp3202
Rp3203
ag2
(g6
S'4B\x9e>'
p3204
tp3205
Rp3206
ag2
(g6
S'\xc0;\x97>'
p3207
tp3208
Rp3209
ag2
(g6
S'\xa0\xaf\x8f>'
p3210
tp3211
Rp3212
ag2
(g6
S'\x84\x16\xa0>'
p3213
tp3214
Rp3215
ag2
(g6
S'\x9c\x08\xa0>'
p3216
tp3217
Rp3218
ag2
(g6
S'\x88\xd7\xac>'
p3219
tp3220
Rp3221
ag2
(g6
S'|\xc7\x9d>'
p3222
tp3223
Rp3224
ag2
(g6
S'\xcc\xd9\x98>'
p3225
tp3226
Rp3227
ag2
(g6
S'${\x91>'
p3228
tp3229
Rp3230
ag2
(g6
S'\x90J\xa2>'
p3231
tp3232
Rp3233
ag2
(g6
S'\x10\xbb\x8e>'
p3234
tp3235
Rp3236
ag2
(g6
S'\xf4\xdc\xa3>'
p3237
tp3238
Rp3239
ag2
(g6
S'\x84\x07\x9e>'
p3240
tp3241
Rp3242
ag2
(g6
S'\xc0=\x8f>'
p3243
tp3244
Rp3245
ag2
(g6
S'hD\x91>'
p3246
tp3247
Rp3248
ag2
(g6
S'\xd4\x06\xa6>'
p3249
tp3250
Rp3251
ag2
(g6
S'd\xcf\xa6>'
p3252
tp3253
Rp3254
ag2
(g6
S'\xa8+\xac>'
p3255
tp3256
Rp3257
ag2
(g6
S'<\xd8\x9c>'
p3258
tp3259
Rp3260
ag2
(g6
S',\xdf\x9e>'
p3261
tp3262
Rp3263
ag2
(g6
S'T\xad\x8e>'
p3264
tp3265
Rp3266
ag2
(g6
S'\xe4\x8f\xa4>'
p3267
tp3268
Rp3269
ag2
(g6
S'\xf0\xfc\x9c>'
p3270
tp3271
Rp3272
ag2
(g6
S'\x8c\xf2\xa5>'
p3273
tp3274
Rp3275
ag2
(g6
S'\xe8\xe6\x91>'
p3276
tp3277
Rp3278
ag2
(g6
S'p`\x97>'
p3279
tp3280
Rp3281
ag2
(g6
S'X\x1f\xa5>'
p3282
tp3283
Rp3284
ag2
(g6
S',\x8b\x9b>'
p3285
tp3286
Rp3287
ag2
(g6
S'L\xcd\x8f>'
p3288
tp3289
Rp3290
ag2
(g6
S',\xe1\xa5>'
p3291
tp3292
Rp3293
ag2
(g6
S'\xb4\xe3\x99>'
p3294
tp3295
Rp3296
ag2
(g6
S'$K\xa5>'
p3297
tp3298
Rp3299
ag2
(g6
S'\xe8\xff\x98>'
p3300
tp3301
Rp3302
ag2
(g6
S'\x18\xca\x9f>'
p3303
tp3304
Rp3305
ag2
(g6
S'`+\x9a>'
p3306
tp3307
Rp3308
ag2
(g6
S'\x84V\x9e>'
p3309
tp3310
Rp3311
ag2
(g6
S'\x84\x85\x9e>'
p3312
tp3313
Rp3314
ag2
(g6
S'\xbc\xc2\x9c>'
p3315
tp3316
Rp3317
ag2
(g6
S'\x1c\\\xa5>'
p3318
tp3319
Rp3320
ag2
(g6
S'\xf4O\xa6>'
p3321
tp3322
Rp3323
ag2
(g6
S',\xff\x99>'
p3324
tp3325
Rp3326
ag2
(g6
S'D]\x97>'
p3327
tp3328
Rp3329
ag2
(g6
S'd\xe2\x9a>'
p3330
tp3331
Rp3332
ag2
(g6
S' \xe6\x91>'
p3333
tp3334
Rp3335
ag2
(g6
S'@\x82\xa0>'
p3336
tp3337
Rp3338
ag2
(g6
S'\x80n\x90>'
p3339
tp3340
Rp3341
ag2
(g6
S'X\x1e\x94>'
p3342
tp3343
Rp3344
ag2
(g6
S'P|\x99>'
p3345
tp3346
Rp3347
ag2
(g6
S'l\xae\xa6>'
p3348
tp3349
Rp3350
ag2
(g6
S'`\x87\xaf>'
p3351
tp3352
Rp3353
ag2
(g6
S'\xe4\xf4\x98>'
p3354
tp3355
Rp3356
ag2
(g6
S'\xf8\x99\x9a>'
p3357
tp3358
Rp3359
ag2
(g6
S'\xec$\xa3>'
p3360
tp3361
Rp3362
ag2
(g6
S'\xac\xea\x9b>'
p3363
tp3364
Rp3365
ag2
(g6
S'\xc4\xfc\x97>'
p3366
tp3367
Rp3368
ag2
(g6
S'8\x90\xa2>'
p3369
tp3370
Rp3371
ag2
(g6
S'\xe8\xd1\xb8>'
p3372
tp3373
Rp3374
ag2
(g6
S'D\x0f\xa0>'
p3375
tp3376
Rp3377
ag2
(g6
S'T\xac\xa7>'
p3378
tp3379
Rp3380
ag2
(g6
S' \xfe\x9e>'
p3381
tp3382
Rp3383
ag2
(g6
S'\x00i\x91>'
p3384
tp3385
Rp3386
ag2
(g6
S'0\x01\xa3>'
p3387
tp3388
Rp3389
ag2
(g6
S'\xa0\xe6\xa0>'
p3390
tp3391
Rp3392
ag2
(g6
S'\xd4J\x8a>'
p3393
tp3394
Rp3395
ag2
(g6
S'\xecV\x9f>'
p3396
tp3397
Rp3398
ag2
(g6
S'@+\x9c>'
p3399
tp3400
Rp3401
ag2
(g6
S'tO\xa4>'
p3402
tp3403
Rp3404
ag2
(g6
S't\x94\xa3>'
p3405
tp3406
Rp3407
ag2
(g6
S'x\x9e\x95>'
p3408
tp3409
Rp3410
ag2
(g6
S'\xd0E\x94>'
p3411
tp3412
Rp3413
ag2
(g6
S'\xac\xf8\x98>'
p3414
tp3415
Rp3416
ag2
(g6
S'h\x01\xa2>'
p3417
tp3418
Rp3419
ag2
(g6
S'\xe0S\x95>'
p3420
tp3421
Rp3422
ag2
(g6
S'\x08W\xae>'
p3423
tp3424
Rp3425
ag2
(g6
S'\xeck\x9d>'
p3426
tp3427
Rp3428
ag2
(g6
S'\xdcv\x89>'
p3429
tp3430
Rp3431
ag2
(g6
S'\xfc\x03\x91>'
p3432
tp3433
Rp3434
ag2
(g6
S'\xf8\x83\x98>'
p3435
tp3436
Rp3437
ag2
(g6
S'4\xa1\x97>'
p3438
tp3439
Rp3440
ag2
(g6
S'\xc8\xe0\x92>'
p3441
tp3442
Rp3443
ag2
(g6
S'p&\x9d>'
p3444
tp3445
Rp3446
ag2
(g6
S'd\x97\x9d>'
p3447
tp3448
Rp3449
ag2
(g6
S'l2\xa9>'
p3450
tp3451
Rp3452
ag2
(g6
S'\xf8\xdf\x99>'
p3453
tp3454
Rp3455
ag2
(g6
S'0\xcd\x9d>'
p3456
tp3457
Rp3458
ag2
(g6
S'@\x87\x9f>'
p3459
tp3460
Rp3461
ag2
(g6
S',\xed\x98>'
p3462
tp3463
Rp3464
ag2
(g6
S'\x0c\xb4\x95>'
p3465
tp3466
Rp3467
ag2
(g6
S'\xa4\xf6\x93>'
p3468
tp3469
Rp3470
ag2
(g6
S'`g\xa0>'
p3471
tp3472
Rp3473
ag2
(g6
S'X\x92\x9e>'
p3474
tp3475
Rp3476
ag2
(g6
S'\x08\xa8\xa1>'
p3477
tp3478
Rp3479
ag2
(g6
S'\x8c\xa5\x8f>'
p3480
tp3481
Rp3482
ag2
(g6
S'L\xff\xa6>'
p3483
tp3484
Rp3485
ag2
(g6
S'P\xfa\x90>'
p3486
tp3487
Rp3488
ag2
(g6
S'x\xf5\xa1>'
p3489
tp3490
Rp3491
ag2
(g6
S'\xd8\x90\xa2>'
p3492
tp3493
Rp3494
ag2
(g6
S'\x94{\xa8>'
p3495
tp3496
Rp3497
ag2
(g6
S't\xc3\xa6>'
p3498
tp3499
Rp3500
ag2
(g6
S'\xb8?\xb0>'
p3501
tp3502
Rp3503
ag2
(g6
S'\x80g\x95>'
p3504
tp3505
Rp3506
ag2
(g6
S'\x88\x9b\xa2>'
p3507
tp3508
Rp3509
ag2
(g6
S'\x18/\x91>'
p3510
tp3511
Rp3512
ag2
(g6
S'\xfc\x82\xa6>'
p3513
tp3514
Rp3515
ag2
(g6
S'\xa8w\xa2>'
p3516
tp3517
Rp3518
ag2
(g6
S'\xdc\xd1\x9b>'
p3519
tp3520
Rp3521
ag2
(g6
S'\xa4>\x9f>'
p3522
tp3523
Rp3524
ag2
(g6
S'd\xc2\xa6>'
p3525
tp3526
Rp3527
ag2
(g6
S'x\xc8\x9d>'
p3528
tp3529
Rp3530
ag2
(g6
S'l\xa3\xa7>'
p3531
tp3532
Rp3533
ag2
(g6
S'\x0c\xcd\x9d>'
p3534
tp3535
Rp3536
ag2
(g6
S'\xe4\xdb\x9e>'
p3537
tp3538
Rp3539
ag2
(g6
S'\xc8<\x8c>'
p3540
tp3541
Rp3542
ag2
(g6
S"\x10'\x89>"
p3543
tp3544
Rp3545
ag2
(g6
S'\xc8\x0b\x9e>'
p3546
tp3547
Rp3548
ag2
(g6
S' \x1b\xbb>'
p3549
tp3550
Rp3551
ag2
(g6
S'D%\x93>'
p3552
tp3553
Rp3554
ag2
(g6
S'H3\x96>'
p3555
tp3556
Rp3557
ag2
(g6
S'0\xe6\xb2>'
p3558
tp3559
Rp3560
ag2
(g6
S'p\xbf\xa4>'
p3561
tp3562
Rp3563
ag2
(g6
S'l\x7f\xa3>'
p3564
tp3565
Rp3566
ag2
(g6
S'0\xc7\x8d>'
p3567
tp3568
Rp3569
ag2
(g6
S'4j\xb0>'
p3570
tp3571
Rp3572
ag2
(g6
S'@-\xa1>'
p3573
tp3574
Rp3575
ag2
(g6
S'p\x1e\xa4>'
p3576
tp3577
Rp3578
ag2
(g6
S'\xdc\xf1\x9b>'
p3579
tp3580
Rp3581
ag2
(g6
S'0\xa1\x9a>'
p3582
tp3583
Rp3584
ag2
(g6
S'\xd4C\x98>'
p3585
tp3586
Rp3587
ag2
(g6
S'\x8c\xac\xa3>'
p3588
tp3589
Rp3590
ag2
(g6
S'0\xec\x90>'
p3591
tp3592
Rp3593
ag2
(g6
S'\xd8\x90\x97>'
p3594
tp3595
Rp3596
ag2
(g6
S'\x84`\x97>'
p3597
tp3598
Rp3599
ag2
(g6
S'h\xf8\x91>'
p3600
tp3601
Rp3602
ag2
(g6
S'P\x1b\xa2>'
p3603
tp3604
Rp3605
ag2
(g6
S'\xac\xa3\x9f>'
p3606
tp3607
Rp3608
ag2
(g6
S'\xb0\xac\x96>'
p3609
tp3610
Rp3611
ag2
(g6
S'\x80\xc7\x9e>'
p3612
tp3613
Rp3614
ag2
(g6
S'tC\x91>'
p3615
tp3616
Rp3617
ag2
(g6
S'\x9c\x93\x92>'
p3618
tp3619
Rp3620
ag2
(g6
S'8\xd7\x8b>'
p3621
tp3622
Rp3623
ag2
(g6
S'\xfc\\\x94>'
p3624
tp3625
Rp3626
ag2
(g6
S'\x1cO\x9c>'
p3627
tp3628
Rp3629
ag2
(g6
S'<A\xa2>'
p3630
tp3631
Rp3632
ag2
(g6
S'\x94P\x9e>'
p3633
tp3634
Rp3635
ag2
(g6
S'<(\x95>'
p3636
tp3637
Rp3638
ag2
(g6
S'l\x9e\xa1>'
p3639
tp3640
Rp3641
ag2
(g6
S'\xa0s\x94>'
p3642
tp3643
Rp3644
ag2
(g6
S'\x9c\x12\x94>'
p3645
tp3646
Rp3647
ag2
(g6
S'\x1c=\xa3>'
p3648
tp3649
Rp3650
ag2
(g6
S',\x9e\xa7>'
p3651
tp3652
Rp3653
ag2
(g6
S'(\xf8\x9a>'
p3654
tp3655
Rp3656
ag2
(g6
S'L\x8d\x92>'
p3657
tp3658
Rp3659
ag2
(g6
S'\xdc1\xa4>'
p3660
tp3661
Rp3662
ag2
(g6
S'0\xbd\x92>'
p3663
tp3664
Rp3665
ag2
(g6
S'\xf8\x82\x9a>'
p3666
tp3667
Rp3668
ag2
(g6
S'\x14\xd0\x95>'
p3669
tp3670
Rp3671
ag2
(g6
S'\x14e\xa0>'
p3672
tp3673
Rp3674
ag2
(g6
S'\xb0\x8a\xb0>'
p3675
tp3676
Rp3677
ag2
(g6
S'\xfce\x9d>'
p3678
tp3679
Rp3680
ag2
(g6
S'h\x83\x9d>'
p3681
tp3682
Rp3683
ag2
(g6
S'\x9c@\xa2>'
p3684
tp3685
Rp3686
ag2
(g6
S'd\x85\x98>'
p3687
tp3688
Rp3689
ag2
(g6
S'\xf4\xff\xa2>'
p3690
tp3691
Rp3692
ag2
(g6
S'\xb0\xb6\x9d>'
p3693
tp3694
Rp3695
ag2
(g6
S' \xf7\xa0>'
p3696
tp3697
Rp3698
ag2
(g6
S'$\xce\xa3>'
p3699
tp3700
Rp3701
ag2
(g6
S'\x08M\x9f>'
p3702
tp3703
Rp3704
ag2
(g6
S'\xc0l\x91>'
p3705
tp3706
Rp3707
ag2
(g6
S'H!\xac>'
p3708
tp3709
Rp3710
ag2
(g6
S'\x8c\xbd\x99>'
p3711
tp3712
Rp3713
ag2
(g6
S'\x9c\xc1\x9f>'
p3714
tp3715
Rp3716
ag2
(g6
S'\xc0\xe5\xa4>'
p3717
tp3718
Rp3719
ag2
(g6
S'\xd8\xe1\x90>'
p3720
tp3721
Rp3722
ag2
(g6
S'X\xbe\x8d>'
p3723
tp3724
Rp3725
ag2
(g6
S'\xf0\x0e\x9e>'
p3726
tp3727
Rp3728
ag2
(g6
S'\xf4\xe3\x93>'
p3729
tp3730
Rp3731
ag2
(g6
S'H\xaa\x91>'
p3732
tp3733
Rp3734
ag2
(g6
S'\xe8\xdb\x9a>'
p3735
tp3736
Rp3737
ag2
(g6
S'8\xe6\xa7>'
p3738
tp3739
Rp3740
ag2
(g6
S'\xc8\x1b\x9a>'
p3741
tp3742
Rp3743
ag2
(g6
S'\xe8\x9d\xac>'
p3744
tp3745
Rp3746
ag2
(g6
S'\x98,\x9d>'
p3747
tp3748
Rp3749
ag2
(g6
S'\x0c\x00\x92>'
p3750
tp3751
Rp3752
ag2
(g6
S'\x08H\x91>'
p3753
tp3754
Rp3755
ag2
(g6
S'x\xcf\xab>'
p3756
tp3757
Rp3758
ag2
(g6
S'p\n\x93>'
p3759
tp3760
Rp3761
ag2
(g6
S'$]\x97>'
p3762
tp3763
Rp3764
ag2
(g6
S'\xd0\xb0\xa0>'
p3765
tp3766
Rp3767
ag2
(g6
S'\xac2\xa1>'
p3768
tp3769
Rp3770
ag2
(g6
S'\xac\xd2\x9a>'
p3771
tp3772
Rp3773
ag2
(g6
S'\xbc\xbf\xa0>'
p3774
tp3775
Rp3776
ag2
(g6
S'x\xef\xa1>'
p3777
tp3778
Rp3779
ag2
(g6
S'x\x91\x91>'
p3780
tp3781
Rp3782
ag2
(g6
S'\xdc\xa0\xaa>'
p3783
tp3784
Rp3785
ag2
(g6
S'\xb0\xbd\x92>'
p3786
tp3787
Rp3788
ag2
(g6
S'0\x18\x9b>'
p3789
tp3790
Rp3791
ag2
(g6
S'<\xa0\x94>'
p3792
tp3793
Rp3794
ag2
(g6
S'\xa8\r\x99>'
p3795
tp3796
Rp3797
ag2
(g6
S' \x80\x9a>'
p3798
tp3799
Rp3800
ag2
(g6
S'\xcc\xf2\xa3>'
p3801
tp3802
Rp3803
ag2
(g6
S'\xac\xdb\xa5>'
p3804
tp3805
Rp3806
ag2
(g6
S'\x88*\x9e>'
p3807
tp3808
Rp3809
ag2
(g6
S'd\x7f\x96>'
p3810
tp3811
Rp3812
ag2
(g6
S'\xdc\xa2\x94>'
p3813
tp3814
Rp3815
ag2
(g6
S'\x14\xf9\x9f>'
p3816
tp3817
Rp3818
ag2
(g6
S'\x08\x17\x97>'
p3819
tp3820
Rp3821
ag2
(g6
S'\x00\xa9\x8f>'
p3822
tp3823
Rp3824
ag2
(g6
S'\xfc\x12\xa4>'
p3825
tp3826
Rp3827
ag2
(g6
S'\x18\xa0\x9a>'
p3828
tp3829
Rp3830
ag2
(g6
S'\x1c\xf3\x9a>'
p3831
tp3832
Rp3833
ag2
(g6
S'\xac\xa2\xa3>'
p3834
tp3835
Rp3836
ag2
(g6
S'<]\x9e>'
p3837
tp3838
Rp3839
ag2
(g6
S'\xe4\x1d\xa8>'
p3840
tp3841
Rp3842
ag2
(g6
S'P\x04\x9b>'
p3843
tp3844
Rp3845
ag2
(g6
S'\xbc\\\x97>'
p3846
tp3847
Rp3848
ag2
(g6
S'(\x84\x8d>'
p3849
tp3850
Rp3851
ag2
(g6
S'\xccz\x9a>'
p3852
tp3853
Rp3854
ag2
(g6
S't\x0c\x92>'
p3855
tp3856
Rp3857
ag2
(g6
S'\x98z\x9e>'
p3858
tp3859
Rp3860
ag2
(g6
S'\x18\xb1\x95>'
p3861
tp3862
Rp3863
ag2
(g6
S'\xa8$\x92>'
p3864
tp3865
Rp3866
ag2
(g6
S' \x9f\x99>'
p3867
tp3868
Rp3869
ag2
(g6
S'T\xc5\xa8>'
p3870
tp3871
Rp3872
ag2
(g6
S'x\xc3\x98>'
p3873
tp3874
Rp3875
ag2
(g6
S'\x1c\xfa\x8f>'
p3876
tp3877
Rp3878
ag2
(g6
S'\xa8 \x9b>'
p3879
tp3880
Rp3881
ag2
(g6
S'\x0cH\x93>'
p3882
tp3883
Rp3884
ag2
(g6
S'\x0c_\x98>'
p3885
tp3886
Rp3887
ag2
(g6
S'\xe0\xae\x98>'
p3888
tp3889
Rp3890
ag2
(g6
S'\x84\xd7\xa3>'
p3891
tp3892
Rp3893
ag2
(g6
S'\xec\xcf\xa2>'
p3894
tp3895
Rp3896
ag2
(g6
S'4\x10\xa6>'
p3897
tp3898
Rp3899
ag2
(g6
S'\xbc0\x93>'
p3900
tp3901
Rp3902
ag2
(g6
S'\xc4`\xa3>'
p3903
tp3904
Rp3905
ag2
(g6
S'\xe4\xd2\x96>'
p3906
tp3907
Rp3908
ag2
(g6
S'\xa4\xb9\x98>'
p3909
tp3910
Rp3911
ag2
(g6
S'T\xd4\x93>'
p3912
tp3913
Rp3914
ag2
(g6
S'\xe8\x0f\x94>'
p3915
tp3916
Rp3917
ag2
(g6
S'\x04\xd1\x95>'
p3918
tp3919
Rp3920
ag2
(g6
S',\xcf\xa9>'
p3921
tp3922
Rp3923
ag2
(g6
S'4\xc0\xa1>'
p3924
tp3925
Rp3926
ag2
(g6
S'H\x0f\x9a>'
p3927
tp3928
Rp3929
ag2
(g6
S'\xec\x12\xa5>'
p3930
tp3931
Rp3932
ag2
(g6
S'\xd0>\x90>'
p3933
tp3934
Rp3935
ag2
(g6
S'\xb4\xee\x9d>'
p3936
tp3937
Rp3938
ag2
(g6
S'L&\x95>'
p3939
tp3940
Rp3941
ag2
(g6
S'0\xd7\xa0>'
p3942
tp3943
Rp3944
ag2
(g6
S'0s\x96>'
p3945
tp3946
Rp3947
ag2
(g6
S'\x80\xbb\x99>'
p3948
tp3949
Rp3950
ag2
(g6
S'\x14\x0b\x9f>'
p3951
tp3952
Rp3953
ag2
(g6
S'\x08_\x8f>'
p3954
tp3955
Rp3956
ag2
(g6
S'<z\x8c>'
p3957
tp3958
Rp3959
ag2
(g6
S'\x9c\xd3\xaa>'
p3960
tp3961
Rp3962
ag2
(g6
S'\x80\xe8\x8e>'
p3963
tp3964
Rp3965
ag2
(g6
S'H\x9b\x87>'
p3966
tp3967
Rp3968
ag2
(g6
S'\x94\xef\x8c>'
p3969
tp3970
Rp3971
ag2
(g6
S'$\x81\x9e>'
p3972
tp3973
Rp3974
ag2
(g6
S'\xbc\xc5\x95>'
p3975
tp3976
Rp3977
ag2
(g6
S'\xac2\x96>'
p3978
tp3979
Rp3980
ag2
(g6
S'\x18\x10\x95>'
p3981
tp3982
Rp3983
ag2
(g6
S'\x0cD\xa3>'
p3984
tp3985
Rp3986
ag2
(g6
S'\xb4\xb1\xa1>'
p3987
tp3988
Rp3989
ag2
(g6
S'\xc0\x91\x86>'
p3990
tp3991
Rp3992
ag2
(g6
S',G\x92>'
p3993
tp3994
Rp3995
ag2
(g6
S'4\xe0\x93>'
p3996
tp3997
Rp3998
ag2
(g6
S'x\x88\xa1>'
p3999
tp4000
Rp4001
ag2
(g6
S'`\xbe\x8a>'
p4002
tp4003
Rp4004
ag2
(g6
S'0\x13\x8d>'
p4005
tp4006
Rp4007
ag2
(g6
S'4r\x95>'
p4008
tp4009
Rp4010
ag2
(g6
S'\x18*\x92>'
p4011
tp4012
Rp4013
ag2
(g6
S'\xfc?\x92>'
p4014
tp4015
Rp4016
ag2
(g6
S'|\xa2\x96>'
p4017
tp4018
Rp4019
ag2
(g6
S'\xc4\xac\x98>'
p4020
tp4021
Rp4022
ag2
(g6
S'\xa8U\x95>'
p4023
tp4024
Rp4025
ag2
(g6
S'\x881\x98>'
p4026
tp4027
Rp4028
ag2
(g6
S'\x80\x1c\xa0>'
p4029
tp4030
Rp4031
ag2
(g6
S'@X\x9f>'
p4032
tp4033
Rp4034
ag2
(g6
S'\xd4\xca\x8d>'
p4035
tp4036
Rp4037
ag2
(g6
S'\x94\x8e\x95>'
p4038
tp4039
Rp4040
ag2
(g6
S'\xa8\xbb\x9f>'
p4041
tp4042
Rp4043
ag2
(g6
S'\xe0\xb2\x93>'
p4044
tp4045
Rp4046
ag2
(g6
S'\x04\x93\x91>'
p4047
tp4048
Rp4049
ag2
(g6
S'\xdcx\x9c>'
p4050
tp4051
Rp4052
ag2
(g6
S'\xa8\xd7\xa1>'
p4053
tp4054
Rp4055
ag2
(g6
S' \xf2\x9f>'
p4056
tp4057
Rp4058
ag2
(g6
S'\x8c\xbb\xa0>'
p4059
tp4060
Rp4061
ag2
(g6
S'\x00\xcb\x9f>'
p4062
tp4063
Rp4064
ag2
(g6
S'\x1c\xfb\x98>'
p4065
tp4066
Rp4067
ag2
(g6
S'\x0c?\x9b>'
p4068
tp4069
Rp4070
ag2
(g6
S'\xdcv\xa2>'
p4071
tp4072
Rp4073
ag2
(g6
S'\x88\x8e\x91>'
p4074
tp4075
Rp4076
ag2
(g6
S'(\x9a\x81>'
p4077
tp4078
Rp4079
ag2
(g6
S'DZ\x95>'
p4080
tp4081
Rp4082
ag2
(g6
S'\xdc\x97\x8d>'
p4083
tp4084
Rp4085
ag2
(g6
S'\x90Y\xa2>'
p4086
tp4087
Rp4088
ag2
(g6
S'XE\x91>'
p4089
tp4090
Rp4091
ag2
(g6
S'0o\x9a>'
p4092
tp4093
Rp4094
ag2
(g6
S'\xa8\x9b\x98>'
p4095
tp4096
Rp4097
ag2
(g6
S'\xd07\x91>'
p4098
tp4099
Rp4100
ag2
(g6
S'\x941\x9b>'
p4101
tp4102
Rp4103
ag2
(g6
S'h\x8e\x9b>'
p4104
tp4105
Rp4106
ag2
(g6
S'<\xe1\x9d>'
p4107
tp4108
Rp4109
ag2
(g6
S'd\xe2\xa9>'
p4110
tp4111
Rp4112
ag2
(g6
S'(8\xa8>'
p4113
tp4114
Rp4115
ag2
(g6
S'\xc8\xd6\x9a>'
p4116
tp4117
Rp4118
ag2
(g6
S'\xd8\xea\x9b>'
p4119
tp4120
Rp4121
ag2
(g6
S'\xc4\x1a\x92>'
p4122
tp4123
Rp4124
ag2
(g6
S'\xa8\xeb\x89>'
p4125
tp4126
Rp4127
ag2
(g6
S'\x18\x99\x89>'
p4128
tp4129
Rp4130
ag2
(g6
S'\xc0.\xba>'
p4131
tp4132
Rp4133
ag2
(g6
S'\xb0\xa1\x9a>'
p4134
tp4135
Rp4136
ag2
(g6
S'\x8cH\x8b>'
p4137
tp4138
Rp4139
ag2
(g6
S'\x98\x96\x92>'
p4140
tp4141
Rp4142
ag2
(g6
S'l\x85\x92>'
p4143
tp4144
Rp4145
ag2
(g6
S'p\xc5\x91>'
p4146
tp4147
Rp4148
ag2
(g6
S'P\xcb\x88>'
p4149
tp4150
Rp4151
ag2
(g6
S'p1\x97>'
p4152
tp4153
Rp4154
ag2
(g6
S'@\xf4\x95>'
p4155
tp4156
Rp4157
ag2
(g6
S'\x98\x1c\xa1>'
p4158
tp4159
Rp4160
ag2
(g6
S'\xe8\xe6\xa0>'
p4161
tp4162
Rp4163
ag2
(g6
S'P\xfd\x8c>'
p4164
tp4165
Rp4166
ag2
(g6
S'H\x8d\xa0>'
p4167
tp4168
Rp4169
ag2
(g6
S'0\xdf\x93>'
p4170
tp4171
Rp4172
ag2
(g6
S'\xc8T\x90>'
p4173
tp4174
Rp4175
ag2
(g6
S'$o\x9a>'
p4176
tp4177
Rp4178
ag2
(g6
S'\xa0e\x94>'
p4179
tp4180
Rp4181
ag2
(g6
S'`\x89\xa0>'
p4182
tp4183
Rp4184
ag2
(g6
S'\xe0\x02\x9a>'
p4185
tp4186
Rp4187
ag2
(g6
S'\xcc\x8c\x97>'
p4188
tp4189
Rp4190
ag2
(g6
S'p\xf6\x91>'
p4191
tp4192
Rp4193
ag2
(g6
S'\x90\x07\x8e>'
p4194
tp4195
Rp4196
ag2
(g6
S'\x14\xaf\x97>'
p4197
tp4198
Rp4199
ag2
(g6
S'\x84\xd6\x97>'
p4200
tp4201
Rp4202
ag2
(g6
S'\x18\x16\xa6>'
p4203
tp4204
Rp4205
ag2
(g6
S'\x0c\xb4\x88>'
p4206
tp4207
Rp4208
ag2
(g6
S'X\xfb\x9d>'
p4209
tp4210
Rp4211
ag2
(g6
S'\xdc\xef\x9a>'
p4212
tp4213
Rp4214
ag2
(g6
S'(\x1b\x94>'
p4215
tp4216
Rp4217
ag2
(g6
S'h\x8d\x8c>'
p4218
tp4219
Rp4220
ag2
(g6
S'\xa0\x0b\x85>'
p4221
tp4222
Rp4223
ag2
(g6
S'\xb4\xa8\xa1>'
p4224
tp4225
Rp4226
ag2
(g6
S'\xe0\xcb\x92>'
p4227
tp4228
Rp4229
ag2
(g6
S'\xa0\r\x9d>'
p4230
tp4231
Rp4232
ag2
(g6
S'h\xca\x96>'
p4233
tp4234
Rp4235
ag2
(g6
S'X\xa0\x96>'
p4236
tp4237
Rp4238
ag2
(g6
S'P2\x85>'
p4239
tp4240
Rp4241
ag2
(g6
S'\x8c\xb4\x97>'
p4242
tp4243
Rp4244
ag2
(g6
S'\xe8\xa0\x9c>'
p4245
tp4246
Rp4247
ag2
(g6
S'\xa0\xa7\x92>'
p4248
tp4249
Rp4250
ag2
(g6
S'\xa0\xe3\x82>'
p4251
tp4252
Rp4253
ag2
(g6
S'|\x84\x98>'
p4254
tp4255
Rp4256
ag2
(g6
S'D`\x9b>'
p4257
tp4258
Rp4259
ag2
(g6
S'\x04\xaa\x96>'
p4260
tp4261
Rp4262
ag2
(g6
S'\xc4]\x8a>'
p4263
tp4264
Rp4265
ag2
(g6
S'\xec=\x95>'
p4266
tp4267
Rp4268
ag2
(g6
S'L/\x98>'
p4269
tp4270
Rp4271
ag2
(g6
S'8\x11\x9a>'
p4272
tp4273
Rp4274
ag2
(g6
S',g\x93>'
p4275
tp4276
Rp4277
ag2
(g6
S'\xa07\x82>'
p4278
tp4279
Rp4280
ag2
(g6
S'\xcc\x11\x93>'
p4281
tp4282
Rp4283
ag2
(g6
S'\x18\x01\x9d>'
p4284
tp4285
Rp4286
ag2
(g6
S'p\xf9\x8d>'
p4287
tp4288
Rp4289
ag2
(g6
S'\xd47\x8d>'
p4290
tp4291
Rp4292
ag2
(g6
S'X\x9e\x94>'
p4293
tp4294
Rp4295
ag2
(g6
S'\x04\xda\x8b>'
p4296
tp4297
Rp4298
ag2
(g6
S'lJ\x98>'
p4299
tp4300
Rp4301
ag2
(g6
S'\x8cz\x84>'
p4302
tp4303
Rp4304
ag2
(g6
S'\x0c\xf2\x90>'
p4305
tp4306
Rp4307
ag2
(g6
S'\xf4r\x95>'
p4308
tp4309
Rp4310
ag2
(g6
S'\xbc\xea\xbb>'
p4311
tp4312
Rp4313
ag2
(g6
S'0\xef\x95>'
p4314
tp4315
Rp4316
ag2
(g6
S'\\\xd3\x97>'
p4317
tp4318
Rp4319
ag2
(g6
S'pm\x8b>'
p4320
tp4321
Rp4322
ag2
(g6
S'h\xf3\x97>'
p4323
tp4324
Rp4325
ag2
(g6
S'|H\x96>'
p4326
tp4327
Rp4328
ag2
(g6
S'`\xb3\xa3>'
p4329
tp4330
Rp4331
ag2
(g6
S'<\xfc\x90>'
p4332
tp4333
Rp4334
ag2
(g6
S'0\x05\x9e>'
p4335
tp4336
Rp4337
ag2
(g6
S'\xf82\x9b>'
p4338
tp4339
Rp4340
ag2
(g6
S'\x00\x80\x97>'
p4341
tp4342
Rp4343
ag2
(g6
S'd\xbb\x97>'
p4344
tp4345
Rp4346
ag2
(g6
S'\xfcc\x9a>'
p4347
tp4348
Rp4349
ag2
(g6
S'\xe8p\x98>'
p4350
tp4351
Rp4352
ag2
(g6
S'\x905\x80>'
p4353
tp4354
Rp4355
ag2
(g6
S'\x1cn\x92>'
p4356
tp4357
Rp4358
ag2
(g6
S'\xb4\xa2\x90>'
p4359
tp4360
Rp4361
ag2
(g6
S'\xa0i\x8c>'
p4362
tp4363
Rp4364
ag2
(g6
S'4V\x8e>'
p4365
tp4366
Rp4367
ag2
(g6
S'\xbc\xfa\x95>'
p4368
tp4369
Rp4370
ag2
(g6
S'\x80|\xb3>'
p4371
tp4372
Rp4373
ag2
(g6
S'\xf0X\x94>'
p4374
tp4375
Rp4376
ag2
(g6
S'\xecF\x8b>'
p4377
tp4378
Rp4379
ag2
(g6
S'\xb8\xc6\x92>'
p4380
tp4381
Rp4382
ag2
(g6
S'\\\x94\x8e>'
p4383
tp4384
Rp4385
ag2
(g6
S'\xb8\xfe\x94>'
p4386
tp4387
Rp4388
ag2
(g6
S'\xacK\x98>'
p4389
tp4390
Rp4391
ag2
(g6
S'\x08\xcf\x8f>'
p4392
tp4393
Rp4394
ag2
(g6
S'\\\x80\x93>'
p4395
tp4396
Rp4397
ag2
(g6
S't\xdd\x9b>'
p4398
tp4399
Rp4400
ag2
(g6
S'TZ\x9b>'
p4401
tp4402
Rp4403
ag2
(g6
S'\xe0j\x92>'
p4404
tp4405
Rp4406
ag2
(g6
S'pD\xba>'
p4407
tp4408
Rp4409
ag2
(g6
S'\xac\xba\x91>'
p4410
tp4411
Rp4412
ag2
(g6
S'0Z\x8d>'
p4413
tp4414
Rp4415
ag2
(g6
S'P\xcb\x8f>'
p4416
tp4417
Rp4418
ag2
(g6
S'\x00\x8a\x89>'
p4419
tp4420
Rp4421
ag2
(g6
S'X\xc0\x98>'
p4422
tp4423
Rp4424
ag2
(g6
S't\x84\x8b>'
p4425
tp4426
Rp4427
ag2
(g6
S'l\xa3\x9d>'
p4428
tp4429
Rp4430
ag2
(g6
S'\x14\xc2\x93>'
p4431
tp4432
Rp4433
ag2
(g6
S'4 \x8f>'
p4434
tp4435
Rp4436
ag2
(g6
S'\x1c\xb8\x89>'
p4437
tp4438
Rp4439
ag2
(g6
S'\x10e\x92>'
p4440
tp4441
Rp4442
ag2
(g6
S'\x88\xaf\x95>'
p4443
tp4444
Rp4445
ag2
(g6
S'\x18%\x99>'
p4446
tp4447
Rp4448
ag2
(g6
S'\x80W\x86>'
p4449
tp4450
Rp4451
ag2
(g6
S'P\xb5\xa4>'
p4452
tp4453
Rp4454
ag2
(g6
S'd\xf7\x93>'
p4455
tp4456
Rp4457
ag2
(g6
S'P\x1c\x9a>'
p4458
tp4459
Rp4460
ag2
(g6
S'\xfc\x9f\xa0>'
p4461
tp4462
Rp4463
ag2
(g6
S'l\xd6\x8a>'
p4464
tp4465
Rp4466
ag2
(g6
S'\xd8|\x9b>'
p4467
tp4468
Rp4469
ag2
(g6
S'\xfc\x03\x94>'
p4470
tp4471
Rp4472
ag2
(g6
S'T\xc4\x8f>'
p4473
tp4474
Rp4475
ag2
(g6
S'\xcc\xb0\x9b>'
p4476
tp4477
Rp4478
ag2
(g6
S't+\x8d>'
p4479
tp4480
Rp4481
ag2
(g6
S'\xc0\xdc\x88>'
p4482
tp4483
Rp4484
ag2
(g6
S'\x94p\x94>'
p4485
tp4486
Rp4487
ag2
(g6
S'p7\x99>'
p4488
tp4489
Rp4490
ag2
(g6
S'\xa4M\x90>'
p4491
tp4492
Rp4493
ag2
(g6
S'\xa4\xdf\x8e>'
p4494
tp4495
Rp4496
ag2
(g6
S'\xec\x87\x94>'
p4497
tp4498
Rp4499
ag2
(g6
S'\x94<\x8c>'
p4500
tp4501
Rp4502
ag2
(g6
S'P,\x8a>'
p4503
tp4504
Rp4505
ag2
(g6
S'Xo\x90>'
p4506
tp4507
Rp4508
ag2
(g6
S'\xc8\xfe\x8e>'
p4509
tp4510
Rp4511
ag2
(g6
S',\xfb\x92>'
p4512
tp4513
Rp4514
ag2
(g6
S'\xacS\x88>'
p4515
tp4516
Rp4517
ag2
(g6
S'<\xb7\x9d>'
p4518
tp4519
Rp4520
ag2
(g6
S'\xe0\x98\x90>'
p4521
tp4522
Rp4523
ag2
(g6
S'\xd8\x14\x8d>'
p4524
tp4525
Rp4526
ag2
(g6
S'\x10\xf6\xac>'
p4527
tp4528
Rp4529
ag2
(g6
S'\x84)\x93>'
p4530
tp4531
Rp4532
ag2
(g6
S'\x1c*\x8e>'
p4533
tp4534
Rp4535
ag2
(g6
S'\x84}\xa2>'
p4536
tp4537
Rp4538
ag2
(g6
S'\xd0g\x9f>'
p4539
tp4540
Rp4541
ag2
(g6
S'\xe8@\x99>'
p4542
tp4543
Rp4544
ag2
(g6
S'\xf0\x8d\x95>'
p4545
tp4546
Rp4547
ag2
(g6
S'TU\x95>'
p4548
tp4549
Rp4550
ag2
(g6
S'\xe0\xf9\x92>'
p4551
tp4552
Rp4553
ag2
(g6
S'\x08\x87\x98>'
p4554
tp4555
Rp4556
ag2
(g6
S'\xa8\xd3\x90>'
p4557
tp4558
Rp4559
ag2
(g6
S'\xdc\x02\x93>'
p4560
tp4561
Rp4562
ag2
(g6
S'\x0c\x08\x8a>'
p4563
tp4564
Rp4565
ag2
(g6
S'\xd8\x13\x8b>'
p4566
tp4567
Rp4568
ag2
(g6
S'\x80$\x99>'
p4569
tp4570
Rp4571
ag2
(g6
S'\xbc\x7f\xa8>'
p4572
tp4573
Rp4574
ag2
(g6
S'0Y\x96>'
p4575
tp4576
Rp4577
ag2
(g6
S'8\x84\x8f>'
p4578
tp4579
Rp4580
ag2
(g6
S't\xaf\x90>'
p4581
tp4582
Rp4583
ag2
(g6
S'\xbcf\xa4>'
p4584
tp4585
Rp4586
ag2
(g6
S'\xacM\x8e>'
p4587
tp4588
Rp4589
ag2
(g6
S'\xc4\x1c\x9f>'
p4590
tp4591
Rp4592
ag2
(g6
S'\x14n\x8d>'
p4593
tp4594
Rp4595
ag2
(g6
S'@t\x9f>'
p4596
tp4597
Rp4598
ag2
(g6
S'$\xce\x8b>'
p4599
tp4600
Rp4601
ag2
(g6
S'\x14\x04\x9c>'
p4602
tp4603
Rp4604
ag2
(g6
S'\xfci\x88>'
p4605
tp4606
Rp4607
ag2
(g6
S't\xa2\x91>'
p4608
tp4609
Rp4610
ag2
(g6
S' \x9a\x87>'
p4611
tp4612
Rp4613
ag2
(g6
S'\xd8:\x9d>'
p4614
tp4615
Rp4616
ag2
(g6
S'\x98\xe9\x90>'
p4617
tp4618
Rp4619
ag2
(g6
S'\xd4q\x9c>'
p4620
tp4621
Rp4622
ag2
(g6
S'\xd4\xa1\x8f>'
p4623
tp4624
Rp4625
ag2
(g6
S'\xa8]\x8f>'
p4626
tp4627
Rp4628
ag2
(g6
S' \xbe\x9a>'
p4629
tp4630
Rp4631
ag2
(g6
S'L\x08\x93>'
p4632
tp4633
Rp4634
ag2
(g6
S'\xd8U\xaf>'
p4635
tp4636
Rp4637
ag2
(g6
S'\x98F\x87>'
p4638
tp4639
Rp4640
ag2
(g6
S'\x88\xbe~>'
p4641
tp4642
Rp4643
ag2
(g6
S'\xd0I\x7f>'
p4644
tp4645
Rp4646
ag2
(g6
S'\x18\x8d\x9c>'
p4647
tp4648
Rp4649
ag2
(g6
S'd\x02\x93>'
p4650
tp4651
Rp4652
ag2
(g6
S'\xd4i\x95>'
p4653
tp4654
Rp4655
ag2
(g6
S'\x80\xfd\x9b>'
p4656
tp4657
Rp4658
ag2
(g6
S'\xf0B\x90>'
p4659
tp4660
Rp4661
ag2
(g6
S'\xf4\xc3\x8e>'
p4662
tp4663
Rp4664
ag2
(g6
S',n\x96>'
p4665
tp4666
Rp4667
ag2
(g6
S'\xec\x1c\x8a>'
p4668
tp4669
Rp4670
ag2
(g6
S'\x98\xe0\x98>'
p4671
tp4672
Rp4673
ag2
(g6
S'\x80\xcc\x9b>'
p4674
tp4675
Rp4676
ag2
(g6
S'\xe8\xda\x8e>'
p4677
tp4678
Rp4679
ag2
(g6
S'\x08u\x8f>'
p4680
tp4681
Rp4682
ag2
(g6
S'\xd4\x9d\x8b>'
p4683
tp4684
Rp4685
ag2
(g6
S'\xf88\x8c>'
p4686
tp4687
Rp4688
ag2
(g6
S't\x8c\x84>'
p4689
tp4690
Rp4691
ag2
(g6
S',{\x8e>'
p4692
tp4693
Rp4694
ag2
(g6
S'P\xf0\x8e>'
p4695
tp4696
Rp4697
ag2
(g6
S'\x883\x93>'
p4698
tp4699
Rp4700
ag2
(g6
S'D5\x9e>'
p4701
tp4702
Rp4703
ag2
(g6
S'\xb0\xf1\x92>'
p4704
tp4705
Rp4706
ag2
(g6
S'x\xe4\x91>'
p4707
tp4708
Rp4709
ag2
(g6
S'\x00\x9b\x9f>'
p4710
tp4711
Rp4712
ag2
(g6
S'\xe8\xf4\x96>'
p4713
tp4714
Rp4715
ag2
(g6
S'\xf4\x87\x8b>'
p4716
tp4717
Rp4718
ag2
(g6
S'\x90_\xa7>'
p4719
tp4720
Rp4721
ag2
(g6
S'\xc8\xcf\x8d>'
p4722
tp4723
Rp4724
ag2
(g6
S'\x84\x00\x84>'
p4725
tp4726
Rp4727
ag2
(g6
S'd\xcd\x80>'
p4728
tp4729
Rp4730
ag2
(g6
S'(\xd3\x99>'
p4731
tp4732
Rp4733
ag2
(g6
S'\xd0\xed\x94>'
p4734
tp4735
Rp4736
ag2
(g6
S'\xecI\x8e>'
p4737
tp4738
Rp4739
ag2
(g6
S'0\x0f\x87>'
p4740
tp4741
Rp4742
ag2
(g6
S'(\xa2\x8d>'
p4743
tp4744
Rp4745
ag2
(g6
S'\xa4?\x9b>'
p4746
tp4747
Rp4748
ag2
(g6
S'0\x13\x93>'
p4749
tp4750
Rp4751
ag2
(g6
S'X\xd7\x98>'
p4752
tp4753
Rp4754
ag2
(g6
S'|\xe0\x84>'
p4755
tp4756
Rp4757
ag2
(g6
S'\xf0\xfb\x90>'
p4758
tp4759
Rp4760
ag2
(g6
S'$\x89\x8a>'
p4761
tp4762
Rp4763
ag2
(g6
S'\xcc\xf1\x83>'
p4764
tp4765
Rp4766
ag2
(g6
S'\xc0\x19\x97>'
p4767
tp4768
Rp4769
ag2
(g6
S'H\xb1\x98>'
p4770
tp4771
Rp4772
ag2
(g6
S'\xf4 \x8d>'
p4773
tp4774
Rp4775
ag2
(g6
S'\x84\xf2\x94>'
p4776
tp4777
Rp4778
ag2
(g6
S'\x08\x19\x99>'
p4779
tp4780
Rp4781
ag2
(g6
S'D\x85\x9b>'
p4782
tp4783
Rp4784
ag2
(g6
S'\xfc\xa6\x8a>'
p4785
tp4786
Rp4787
ag2
(g6
S'p\x82\x94>'
p4788
tp4789
Rp4790
ag2
(g6
S'\\/\x8b>'
p4791
tp4792
Rp4793
ag2
(g6
S'| \x87>'
p4794
tp4795
Rp4796
ag2
(g6
S'$\xc9\x8e>'
p4797
tp4798
Rp4799
ag2
(g6
S'L\xbc\x8a>'
p4800
tp4801
Rp4802
ag2
(g6
S'\x98\x82{>'
p4803
tp4804
Rp4805
ag2
(g6
S'\xc4\xec\xa6>'
p4806
tp4807
Rp4808
ag2
(g6
S'\xe4.\x95>'
p4809
tp4810
Rp4811
ag2
(g6
S'\x9c\xc1\x92>'
p4812
tp4813
Rp4814
ag2
(g6
S'\xc0\xf4\x88>'
p4815
tp4816
Rp4817
ag2
(g6
S'\x18\xea\x94>'
p4818
tp4819
Rp4820
ag2
(g6
S'p\xa3\x81>'
p4821
tp4822
Rp4823
ag2
(g6
S'\x84\x13\x99>'
p4824
tp4825
Rp4826
ag2
(g6
S'hA{>'
p4827
tp4828
Rp4829
ag2
(g6
S'\xfcs\x89>'
p4830
tp4831
Rp4832
ag2
(g6
S'|\xe2\x96>'
p4833
tp4834
Rp4835
ag2
(g6
S'\xa0,\x87>'
p4836
tp4837
Rp4838
ag2
(g6
S'\x10\xaf\x8d>'
p4839
tp4840
Rp4841
ag2
(g6
S'H\xcc\x98>'
p4842
tp4843
Rp4844
ag2
(g6
S'\xd8\xb3\x88>'
p4845
tp4846
Rp4847
ag2
(g6
S'h\xb5\xa9>'
p4848
tp4849
Rp4850
ag2
(g6
S'\x84g\x81>'
p4851
tp4852
Rp4853
ag2
(g6
S'\xa4\xa7\x8d>'
p4854
tp4855
Rp4856
ag2
(g6
S'$M\x88>'
p4857
tp4858
Rp4859
ag2
(g6
S'4p\x8b>'
p4860
tp4861
Rp4862
ag2
(g6
S'\x10b}>'
p4863
tp4864
Rp4865
ag2
(g6
S'\x04\xb3\x87>'
p4866
tp4867
Rp4868
ag2
(g6
S'\x14\xc2\x89>'
p4869
tp4870
Rp4871
ag2
(g6
S'\xc0\x8e\x9e>'
p4872
tp4873
Rp4874
ag2
(g6
S'\xc4\x87\x8d>'
p4875
tp4876
Rp4877
ag2
(g6
S'l\xaf\x88>'
p4878
tp4879
Rp4880
ag2
(g6
S'|;\x8b>'
p4881
tp4882
Rp4883
ag2
(g6
S'\x88\x8b\x8b>'
p4884
tp4885
Rp4886
ag2
(g6
S'H\xfb\x8a>'
p4887
tp4888
Rp4889
ag2
(g6
S'\xa8/\x95>'
p4890
tp4891
Rp4892
ag2
(g6
S'\xb4\x94\x8f>'
p4893
tp4894
Rp4895
ag2
(g6
S'\x98R\x8d>'
p4896
tp4897
Rp4898
ag2
(g6
S'D\x8d\x85>'
p4899
tp4900
Rp4901
ag2
(g6
S'X\x07\x86>'
p4902
tp4903
Rp4904
ag2
(g6
S'\xd0\x1b\x87>'
p4905
tp4906
Rp4907
ag2
(g6
S'P1\x82>'
p4908
tp4909
Rp4910
ag2
(g6
S'x$\x89>'
p4911
tp4912
Rp4913
ag2
(g6
S'\x8c\x12\x89>'
p4914
tp4915
Rp4916
ag2
(g6
S'\xb0\x91\x7f>'
p4917
tp4918
Rp4919
ag2
(g6
S'\x98W\x83>'
p4920
tp4921
Rp4922
ag2
(g6
S'\xe0%w>'
p4923
tp4924
Rp4925
ag2
(g6
S'<\xe6\x88>'
p4926
tp4927
Rp4928
ag2
(g6
S'8\xfb\x89>'
p4929
tp4930
Rp4931
ag2
(g6
S'\xfc1\x92>'
p4932
tp4933
Rp4934
ag2
(g6
S'D\x9a\x98>'
p4935
tp4936
Rp4937
ag2
(g6
S'4\xa7\x89>'
p4938
tp4939
Rp4940
ag2
(g6
S',\xcd\x98>'
p4941
tp4942
Rp4943
ag2
(g6
S'\\F\x91>'
p4944
tp4945
Rp4946
ag2
(g6
S'TU\x9c>'
p4947
tp4948
Rp4949
ag2
(g6
S'p?\x8e>'
p4950
tp4951
Rp4952
ag2
(g6
S'\x98\xb0\x9b>'
p4953
tp4954
Rp4955
ag2
(g6
S'\x90\x02\x92>'
p4956
tp4957
Rp4958
ag2
(g6
S'\x9c%\x93>'
p4959
tp4960
Rp4961
ag2
(g6
S'\x14H\x87>'
p4962
tp4963
Rp4964
ag2
(g6
S'h\xf1\x8f>'
p4965
tp4966
Rp4967
ag2
(g6
S'\xd4\xb1\x8d>'
p4968
tp4969
Rp4970
ag2
(g6
S'd5\x90>'
p4971
tp4972
Rp4973
ag2
(g6
S'(\x7f\x9a>'
p4974
tp4975
Rp4976
ag2
(g6
S'\x00\x91\x97>'
p4977
tp4978
Rp4979
ag2
(g6
S'\x88\xdd\x85>'
p4980
tp4981
Rp4982
ag2
(g6
S'd7\x8f>'
p4983
tp4984
Rp4985
ag2
(g6
S'\x04S\x92>'
p4986
tp4987
Rp4988
ag2
(g6
S'\xfc\xb8\x88>'
p4989
tp4990
Rp4991
ag2
(g6
S'\xa8\xf9\x83>'
p4992
tp4993
Rp4994
ag2
(g6
S'`^\x8b>'
p4995
tp4996
Rp4997
ag2
(g6
S'|\x07\x86>'
p4998
tp4999
Rp5000
ag2
(g6
S'hA\x87>'
p5001
tp5002
Rp5003
ag2
(g6
S'\xe4\x12\x8e>'
p5004
tp5005
Rp5006
ag2
(g6
S'\x04\x95\x91>'
p5007
tp5008
Rp5009
ag2
(g6
S'@/\x93>'
p5010
tp5011
Rp5012
ag2
(g6
S'\xfco\x93>'
p5013
tp5014
Rp5015
ag2
(g6
S'l \x89>'
p5016
tp5017
Rp5018
ag2
(g6
S'\xf8\xdf\x9a>'
p5019
tp5020
Rp5021
ag2
(g6
S'dH\x8c>'
p5022
tp5023
Rp5024
ag2
(g6
S'\xa8\xc4\x8d>'
p5025
tp5026
Rp5027
ag2
(g6
S'\xc8K\x91>'
p5028
tp5029
Rp5030
ag2
(g6
S'`\r\x91>'
p5031
tp5032
Rp5033
ag2
(g6
S'4\x19\x8f>'
p5034
tp5035
Rp5036
ag2
(g6
S'\x1c\x88\x8d>'
p5037
tp5038
Rp5039
ag2
(g6
S'HQ\x97>'
p5040
tp5041
Rp5042
ag2
(g6
S'8\xa3\xa4>'
p5043
tp5044
Rp5045
ag2
(g6
S'\xe89\x8d>'
p5046
tp5047
Rp5048
ag2
(g6
S'\xec?\x8a>'
p5049
tp5050
Rp5051
ag2
(g6
S'\xfc\x81\xa1>'
p5052
tp5053
Rp5054
ag2
(g6
S'\xd0\xf2\xa1>'
p5055
tp5056
Rp5057
ag2
(g6
S'\x98\xa5\x80>'
p5058
tp5059
Rp5060
ag2
(g6
S'\x18d{>'
p5061
tp5062
Rp5063
ag2
(g6
S',\xeb\x83>'
p5064
tp5065
Rp5066
ag2
(g6
S'\xec\x16\x80>'
p5067
tp5068
Rp5069
ag2
(g6
S'\\\x9e\x96>'
p5070
tp5071
Rp5072
ag2
(g6
S'\xe0\xa7\x94>'
p5073
tp5074
Rp5075
ag2
(g6
S'\xdc0\x91>'
p5076
tp5077
Rp5078
ag2
(g6
S'tO\x88>'
p5079
tp5080
Rp5081
ag2
(g6
S'4\x01\x91>'
p5082
tp5083
Rp5084
ag2
(g6
S'L"\x91>'
p5085
tp5086
Rp5087
ag2
(g6
S'\xcc2\x93>'
p5088
tp5089
Rp5090
ag2
(g6
S'0P\x8a>'
p5091
tp5092
Rp5093
ag2
(g6
S'\xcc\xda\x8b>'
p5094
tp5095
Rp5096
ag2
(g6
S'|2\x84>'
p5097
tp5098
Rp5099
ag2
(g6
S'\x88\xe2\x85>'
p5100
tp5101
Rp5102
ag2
(g6
S'\xb0!\x86>'
p5103
tp5104
Rp5105
ag2
(g6
S'\x04\x96\x95>'
p5106
tp5107
Rp5108
ag2
(g6
S'\xec0\x8e>'
p5109
tp5110
Rp5111
ag2
(g6
S'\xa4\x91\x89>'
p5112
tp5113
Rp5114
ag2
(g6
S' s\x95>'
p5115
tp5116
Rp5117
ag2
(g6
S'\x9c\xb4\x84>'
p5118
tp5119
Rp5120
ag2
(g6
S'\x9c\x17\x97>'
p5121
tp5122
Rp5123
ag2
(g6
S'\x10*\x92>'
p5124
tp5125
Rp5126
ag2
(g6
S'\xe4\xc2\x8d>'
p5127
tp5128
Rp5129
ag2
(g6
S'd\xee\x86>'
p5130
tp5131
Rp5132
ag2
(g6
S'|\xc0\x91>'
p5133
tp5134
Rp5135
ag2
(g6
S'\xd8\xcfx>'
p5136
tp5137
Rp5138
ag2
(g6
S'Ls\x9a>'
p5139
tp5140
Rp5141
ag2
(g6
S'\x94\x83\x9b>'
p5142
tp5143
Rp5144
ag2
(g6
S'\x18\xb6\x84>'
p5145
tp5146
Rp5147
ag2
(g6
S'\xa8"\x92>'
p5148
tp5149
Rp5150
ag2
(g6
S'\x90\xa9\x99>'
p5151
tp5152
Rp5153
ag2
(g6
S'`\xfa\x8a>'
p5154
tp5155
Rp5156
ag2
(g6
S'\xa0W\x87>'
p5157
tp5158
Rp5159
ag2
(g6
S'l\xd0\x91>'
p5160
tp5161
Rp5162
ag2
(g6
S'0z\x99>'
p5163
tp5164
Rp5165
ag2
(g6
S'\xb8/\x80>'
p5166
tp5167
Rp5168
ag2
(g6
S'\x14\xbf\x85>'
p5169
tp5170
Rp5171
ag2
(g6
S'\xd8\x83\xa6>'
p5172
tp5173
Rp5174
ag2
(g6
S'\xa4\x95\x92>'
p5175
tp5176
Rp5177
ag2
(g6
S'\x18\xb0\x84>'
p5178
tp5179
Rp5180
ag2
(g6
S'\xa4:\x8f>'
p5181
tp5182
Rp5183
ag2
(g6
S'\x08\xe3s>'
p5184
tp5185
Rp5186
ag2
(g6
S'\x88\x11\x9b>'
p5187
tp5188
Rp5189
ag2
(g6
S'\x18\xba\x81>'
p5190
tp5191
Rp5192
ag2
(g6
S'\xf0h\x8b>'
p5193
tp5194
Rp5195
ag2
(g6
S'DJ\x8f>'
p5196
tp5197
Rp5198
ag2
(g6
S'X\xbb\x85>'
p5199
tp5200
Rp5201
ag2
(g6
S'\x9cV\x88>'
p5202
tp5203
Rp5204
ag2
(g6
S'L\xc4\x8a>'
p5205
tp5206
Rp5207
ag2
(g6
S'\xf4^\x8a>'
p5208
tp5209
Rp5210
ag2
(g6
S'\x94\xe7\x86>'
p5211
tp5212
Rp5213
ag2
(g6
S'\xc0s\x7f>'
p5214
tp5215
Rp5216
ag2
(g6
S'\x0c7\x90>'
p5217
tp5218
Rp5219
ag2
(g6
S'\x84\x02\x8f>'
p5220
tp5221
Rp5222
ag2
(g6
S'\xc0_\x85>'
p5223
tp5224
Rp5225
ag2
(g6
S'tS\x94>'
p5226
tp5227
Rp5228
ag2
(g6
S'\xf0\xd4\x8e>'
p5229
tp5230
Rp5231
ag2
(g6
S'\xd4\xa4\x94>'
p5232
tp5233
Rp5234
ag2
(g6
S'\xa8!\x9e>'
p5235
tp5236
Rp5237
ag2
(g6
S'\xc8\x99\x8a>'
p5238
tp5239
Rp5240
ag2
(g6
S'\xe0\x19w>'
p5241
tp5242
Rp5243
ag2
(g6
S'\xccR\x8b>'
p5244
tp5245
Rp5246
ag2
(g6
S'\xe0\xac\x8e>'
p5247
tp5248
Rp5249
ag2
(g6
S'P\xc3\x8f>'
p5250
tp5251
Rp5252
ag2
(g6
S'\x80_\x8f>'
p5253
tp5254
Rp5255
ag2
(g6
S'D\x91\x90>'
p5256
tp5257
Rp5258
ag2
(g6
S'\x84)\x8e>'
p5259
tp5260
Rp5261
ag2
(g6
S'x.\x83>'
p5262
tp5263
Rp5264
ag2
(g6
S',\xe0\x88>'
p5265
tp5266
Rp5267
ag2
(g6
S't\x80\x8b>'
p5268
tp5269
Rp5270
ag2
(g6
S'\xc4\xb8\x85>'
p5271
tp5272
Rp5273
ag2
(g6
S'\xf4\x00\x98>'
p5274
tp5275
Rp5276
ag2
(g6
S'\xf4\x88\x90>'
p5277
tp5278
Rp5279
ag2
(g6
S'\xec\xb9\x8b>'
p5280
tp5281
Rp5282
ag2
(g6
S'8\x92\x92>'
p5283
tp5284
Rp5285
ag2
(g6
S'<c\x9a>'
p5286
tp5287
Rp5288
ag2
(g6
S'\xe8\x17\x80>'
p5289
tp5290
Rp5291
ag2
(g6
S'X\xe8\x80>'
p5292
tp5293
Rp5294
ag2
(g6
S'\xb4\xd8\x8d>'
p5295
tp5296
Rp5297
ag2
(g6
S'hj\x99>'
p5298
tp5299
Rp5300
ag2
(g6
S'\xc8U\x84>'
p5301
tp5302
Rp5303
ag2
(g6
S'|\x87\x83>'
p5304
tp5305
Rp5306
ag2
(g6
S'\x18\xfd\x86>'
p5307
tp5308
Rp5309
ag2
(g6
S'\\\x1a\x98>'
p5310
tp5311
Rp5312
ag2
(g6
S'0\x97\x97>'
p5313
tp5314
Rp5315
ag2
(g6
S'H\x93\x87>'
p5316
tp5317
Rp5318
ag2
(g6
S'\xe0f\x91>'
p5319
tp5320
Rp5321
ag2
(g6
S'\xc4u\x83>'
p5322
tp5323
Rp5324
ag2
(g6
S'\xf8K\x85>'
p5325
tp5326
Rp5327
ag2
(g6
S'\xf0\xaf\x8d>'
p5328
tp5329
Rp5330
ag2
(g6
S'\xc0N\x88>'
p5331
tp5332
Rp5333
ag2
(g6
S'`\xa4\x80>'
p5334
tp5335
Rp5336
ag2
(g6
S'\xa8\x12\x8d>'
p5337
tp5338
Rp5339
ag2
(g6
S'\x10K\x80>'
p5340
tp5341
Rp5342
ag2
(g6
S'\xecY\x88>'
p5343
tp5344
Rp5345
ag2
(g6
S'@\xd2\x8f>'
p5346
tp5347
Rp5348
ag2
(g6
S'\xd0\xef\x87>'
p5349
tp5350
Rp5351
ag2
(g6
S'\x8cA\x98>'
p5352
tp5353
Rp5354
ag2
(g6
S'x\xf6\x8b>'
p5355
tp5356
Rp5357
ag2
(g6
S'\xb0\xed\x94>'
p5358
tp5359
Rp5360
ag2
(g6
S'\x08@u>'
p5361
tp5362
Rp5363
ag2
(g6
S'\xf8\x1c\x87>'
p5364
tp5365
Rp5366
ag2
(g6
S'8\x0e\x86>'
p5367
tp5368
Rp5369
ag2
(g6
S'4\x86\x86>'
p5370
tp5371
Rp5372
ag2
(g6
S'\x14\xab\x90>'
p5373
tp5374
Rp5375
ag2
(g6
S'\xe8\x9c\x8d>'
p5376
tp5377
Rp5378
ag2
(g6
S'\x00z\x88>'
p5379
tp5380
Rp5381
ag2
(g6
S'X\xa9\x8a>'
p5382
tp5383
Rp5384
ag2
(g6
S'\xb4\x0c\x84>'
p5385
tp5386
Rp5387
ag2
(g6
S'\x84\x1f\x86>'
p5388
tp5389
Rp5390
ag2
(g6
S' I\x98>'
p5391
tp5392
Rp5393
ag2
(g6
S'\xa8\x8d\x88>'
p5394
tp5395
Rp5396
ag2
(g6
S'\x00I\x82>'
p5397
tp5398
Rp5399
ag2
(g6
S'\x90A\x93>'
p5400
tp5401
Rp5402
ag2
(g6
S'(\xba\x83>'
p5403
tp5404
Rp5405
ag2
(g6
S'\xe06\x80>'
p5406
tp5407
Rp5408
ag2
(g6
S'|\xe3\x88>'
p5409
tp5410
Rp5411
ag2
(g6
S'@8\x84>'
p5412
tp5413
Rp5414
ag2
(g6
S'\xb0\x8e|>'
p5415
tp5416
Rp5417
ag2
(g6
S'h\x12\x9e>'
p5418
tp5419
Rp5420
ag2
(g6
S'\xfc\x0e\x8e>'
p5421
tp5422
Rp5423
ag2
(g6
S'\x80s\x8b>'
p5424
tp5425
Rp5426
ag2
(g6
S'\x18\xdc\x9c>'
p5427
tp5428
Rp5429
ag2
(g6
S',\x9d\x82>'
p5430
tp5431
Rp5432
ag2
(g6
S'\xf0\x88\x8b>'
p5433
tp5434
Rp5435
ag2
(g6
S'\xfcL\x84>'
p5436
tp5437
Rp5438
ag2
(g6
S'\x04\xd7\x95>'
p5439
tp5440
Rp5441
ag2
(g6
S'\x08A\x94>'
p5442
tp5443
Rp5444
ag2
(g6
S',2\x8d>'
p5445
tp5446
Rp5447
ag2
(g6
S'\xe8|\xa0>'
p5448
tp5449
Rp5450
ag2
(g6
S'\xb0\xe8u>'
p5451
tp5452
Rp5453
ag2
(g6
S'\x8cH\x84>'
p5454
tp5455
Rp5456
ag2
(g6
S'\xbc\t\x83>'
p5457
tp5458
Rp5459
ag2
(g6
S'\x88\x93\x85>'
p5460
tp5461
Rp5462
ag2
(g6
S' \xd2\x86>'
p5463
tp5464
Rp5465
ag2
(g6
S'\x18I\x9a>'
p5466
tp5467
Rp5468
ag2
(g6
S'(\x12\x8c>'
p5469
tp5470
Rp5471
ag2
(g6
S'\x88N\x89>'
p5472
tp5473
Rp5474
ag2
(g6
S'`\x97\x7f>'
p5475
tp5476
Rp5477
ag2
(g6
S'`\x15\x8b>'
p5478
tp5479
Rp5480
ag2
(g6
S'\xc0\xa4\x81>'
p5481
tp5482
Rp5483
ag2
(g6
S'\x88\xb2\x8c>'
p5484
tp5485
Rp5486
ag2
(g6
S'\x980\x87>'
p5487
tp5488
Rp5489
ag2
(g6
S'\xfc\xd7\x85>'
p5490
tp5491
Rp5492
ag2
(g6
S'T\xcb\x84>'
p5493
tp5494
Rp5495
ag2
(g6
S'\x08\x1b\x92>'
p5496
tp5497
Rp5498
ag2
(g6
S'\xa4\xaf\x97>'
p5499
tp5500
Rp5501
ag2
(g6
S'\xa0\xba\x8c>'
p5502
tp5503
Rp5504
ag2
(g6
S'\x08\xad\x85>'
p5505
tp5506
Rp5507
ag2
(g6
S'\xc8\xe3\x8b>'
p5508
tp5509
Rp5510
ag2
(g6
S'\x00P\x86>'
p5511
tp5512
Rp5513
ag2
(g6
S'\xec\xc6\x80>'
p5514
tp5515
Rp5516
ag2
(g6
S'\xc0\x94\x83>'
p5517
tp5518
Rp5519
ag2
(g6
S'\x00D\x87>'
p5520
tp5521
Rp5522
ag2
(g6
S'p|\x8d>'
p5523
tp5524
Rp5525
ag2
(g6
S'<&\x8d>'
p5526
tp5527
Rp5528
ag2
(g6
S'\xa0\x03\x84>'
p5529
tp5530
Rp5531
ag2
(g6
S'\x8c\xae\x89>'
p5532
tp5533
Rp5534
ag2
(g6
S'\xb0\xbd\x97>'
p5535
tp5536
Rp5537
ag2
(g6
S'\xa4\xb6\x8d>'
p5538
tp5539
Rp5540
ag2
(g6
S'\xdc\xc0\x8c>'
p5541
tp5542
Rp5543
ag2
(g6
S'\x14\xdb\x92>'
p5544
tp5545
Rp5546
ag2
(g6
S'$K\x87>'
p5547
tp5548
Rp5549
ag2
(g6
S'\x88\xd8\x86>'
p5550
tp5551
Rp5552
ag2
(g6
S'\xf0\xd0\x7f>'
p5553
tp5554
Rp5555
ag2
(g6
S'\x0c\t\x84>'
p5556
tp5557
Rp5558
ag2
(g6
S'\xe0\xed\x8b>'
p5559
tp5560
Rp5561
ag2
(g6
S'\xacC\x91>'
p5562
tp5563
Rp5564
ag2
(g6
S'\xe8\xf7\x82>'
p5565
tp5566
Rp5567
ag2
(g6
S'\xb8\xdf\x83>'
p5568
tp5569
Rp5570
ag2
(g6
S'8Z\x8e>'
p5571
tp5572
Rp5573
ag2
(g6
S'0c~>'
p5574
tp5575
Rp5576
ag2
(g6
S'\x84I\x89>'
p5577
tp5578
Rp5579
ag2
(g6
S'`\x90\x82>'
p5580
tp5581
Rp5582
ag2
(g6
S'\xf0vo>'
p5583
tp5584
Rp5585
ag2
(g6
S'\xa01t>'
p5586
tp5587
Rp5588
ag2
(g6
S'\x00D\x80>'
p5589
tp5590
Rp5591
ag2
(g6
S'\x182v>'
p5592
tp5593
Rp5594
ag2
(g6
S'\xac\xb2\x98>'
p5595
tp5596
Rp5597
ag2
(g6
S'\x0c\xce\x91>'
p5598
tp5599
Rp5600
ag2
(g6
S'\xb4\xae\x84>'
p5601
tp5602
Rp5603
ag2
(g6
S'\xc4`\xa7>'
p5604
tp5605
Rp5606
ag2
(g6
S'\x84Q\x8c>'
p5607
tp5608
Rp5609
ag2
(g6
S'@a\x83>'
p5610
tp5611
Rp5612
ag2
(g6
S'\xdcI\x9b>'
p5613
tp5614
Rp5615
ag2
(g6
S'\xac*\x86>'
p5616
tp5617
Rp5618
ag2
(g6
S'p\xa3\x8b>'
p5619
tp5620
Rp5621
ag2
(g6
S'\xc8\xe9\x80>'
p5622
tp5623
Rp5624
ag2
(g6
S'D\xde\x90>'
p5625
tp5626
Rp5627
ag2
(g6
S',\xeb\x92>'
p5628
tp5629
Rp5630
ag2
(g6
S'\xe0\xb2\x8d>'
p5631
tp5632
Rp5633
ag2
(g6
S'H\xe5h>'
p5634
tp5635
Rp5636
ag2
(g6
S'\x80d\x87>'
p5637
tp5638
Rp5639
ag2
(g6
S'\xac%\x95>'
p5640
tp5641
Rp5642
ag2
(g6
S'\xa4J\x8c>'
p5643
tp5644
Rp5645
ag2
(g6
S'\xd0\xb4\x8b>'
p5646
tp5647
Rp5648
ag2
(g6
S'`:\x9d>'
p5649
tp5650
Rp5651
ag2
(g6
S'\x8c&\x93>'
p5652
tp5653
Rp5654
ag2
(g6
S'\xa8K\x83>'
p5655
tp5656
Rp5657
ag2
(g6
S'P\xa4\x90>'
p5658
tp5659
Rp5660
ag2
(g6
S'\xc8\xe9\x82>'
p5661
tp5662
Rp5663
ag2
(g6
S'\x98\xee\x99>'
p5664
tp5665
Rp5666
ag2
(g6
S'@\xbc\x9c>'
p5667
tp5668
Rp5669
ag2
(g6
S'\x8c\xb4\x84>'
p5670
tp5671
Rp5672
ag2
(g6
S'\xbc#\x90>'
p5673
tp5674
Rp5675
ag2
(g6
S'\x90q\x87>'
p5676
tp5677
Rp5678
ag2
(g6
S'Hc\x8d>'
p5679
tp5680
Rp5681
ag2
(g6
S'(R\x92>'
p5682
tp5683
Rp5684
ag2
(g6
S'Ly\x87>'
p5685
tp5686
Rp5687
ag2
(g6
S'\xb4\xbd\x95>'
p5688
tp5689
Rp5690
ag2
(g6
S'\xe0c\x96>'
p5691
tp5692
Rp5693
ag2
(g6
S'\xc4\x1a\x9d>'
p5694
tp5695
Rp5696
ag2
(g6
S'x|\x8c>'
p5697
tp5698
Rp5699
ag2
(g6
S'\x88\xf8\x83>'
p5700
tp5701
Rp5702
ag2
(g6
S'\x94\x13\x85>'
p5703
tp5704
Rp5705
ag2
(g6
S'dl\x86>'
p5706
tp5707
Rp5708
ag2
(g6
S'\xe8\xe3\x8c>'
p5709
tp5710
Rp5711
ag2
(g6
S'<P\x82>'
p5712
tp5713
Rp5714
ag2
(g6
S'\x90f\x93>'
p5715
tp5716
Rp5717
ag2
(g6
S'D\xb1\x8e>'
p5718
tp5719
Rp5720
ag2
(g6
S'\x84<\x96>'
p5721
tp5722
Rp5723
ag2
(g6
S'$\x1a\x82>'
p5724
tp5725
Rp5726
ag2
(g6
S'\x80rw>'
p5727
tp5728
Rp5729
ag2
(g6
S'\xb8V\x94>'
p5730
tp5731
Rp5732
ag2
(g6
S'\x88u\x8b>'
p5733
tp5734
Rp5735
ag2
(g6
S'\x18\xa1\x92>'
p5736
tp5737
Rp5738
ag2
(g6
S'X\xd1\x83>'
p5739
tp5740
Rp5741
ag2
(g6
S'\xe4\xb8\x8a>'
p5742
tp5743
Rp5744
ag2
(g6
S'8V\x8e>'
p5745
tp5746
Rp5747
ag2
(g6
S'l\xc5\x83>'
p5748
tp5749
Rp5750
ag2
(g6
S't\xf5\x86>'
p5751
tp5752
Rp5753
ag2
(g6
S'\xc0g\x8e>'
p5754
tp5755
Rp5756
ag2
(g6
S'\xd8\x95\x84>'
p5757
tp5758
Rp5759
ag2
(g6
S'\xa4\x80\x84>'
p5760
tp5761
Rp5762
ag2
(g6
S'L\xf5\x87>'
p5763
tp5764
Rp5765
ag2
(g6
S'\xcc\x85\x9d>'
p5766
tp5767
Rp5768
ag2
(g6
S'\\/\x8a>'
p5769
tp5770
Rp5771
ag2
(g6
S'LI\x92>'
p5772
tp5773
Rp5774
ag2
(g6
S'\xac\xde\x83>'
p5775
tp5776
Rp5777
ag2
(g6
S'\xa0\x96x>'
p5778
tp5779
Rp5780
ag2
(g6
S'$\xf5\x92>'
p5781
tp5782
Rp5783
ag2
(g6
S'\xd4\x8f\x93>'
p5784
tp5785
Rp5786
ag2
(g6
S'\xc0*\x8f>'
p5787
tp5788
Rp5789
ag2
(g6
S'\x10\x85\x8b>'
p5790
tp5791
Rp5792
ag2
(g6
S'xi~>'
p5793
tp5794
Rp5795
ag2
(g6
S'8\xe2\x95>'
p5796
tp5797
Rp5798
ag2
(g6
S'\x189\x8f>'
p5799
tp5800
Rp5801
ag2
(g6
S'l \x86>'
p5802
tp5803
Rp5804
ag2
(g6
S'(\x93~>'
p5805
tp5806
Rp5807
ag2
(g6
S'p\xde\x83>'
p5808
tp5809
Rp5810
ag2
(g6
S'@\xb9\x8d>'
p5811
tp5812
Rp5813
ag2
(g6
S'\x98\xc0\x98>'
p5814
tp5815
Rp5816
ag2
(g6
S'8\xa3\x87>'
p5817
tp5818
Rp5819
ag2
(g6
S'\xacF\x8e>'
p5820
tp5821
Rp5822
ag2
(g6
S'\x183\x8b>'
p5823
tp5824
Rp5825
ag2
(g6
S'T\xfb\x80>'
p5826
tp5827
Rp5828
ag2
(g6
S'\x88\xb0\x95>'
p5829
tp5830
Rp5831
ag2
(g6
S'd!\x8c>'
p5832
tp5833
Rp5834
ag2
(g6
S'0\xac\xa0>'
p5835
tp5836
Rp5837
ag2
(g6
S'\x84\xcd\x9b>'
p5838
tp5839
Rp5840
ag2
(g6
S'\xfcY\x90>'
p5841
tp5842
Rp5843
ag2
(g6
S'(7\x8b>'
p5844
tp5845
Rp5846
ag2
(g6
S'X\xdb\x8c>'
p5847
tp5848
Rp5849
ag2
(g6
S'\xa8\x92\x8a>'
p5850
tp5851
Rp5852
ag2
(g6
S'8\xa4\x99>'
p5853
tp5854
Rp5855
ag2
(g6
S'\x14\xbb\x83>'
p5856
tp5857
Rp5858
ag2
(g6
S'l\xb8\x8d>'
p5859
tp5860
Rp5861
ag2
(g6
S'\xe8\xd6\x92>'
p5862
tp5863
Rp5864
ag2
(g6
S'\xdc\x8d\x83>'
p5865
tp5866
Rp5867
ag2
(g6
S'\xec\xa0\x95>'
p5868
tp5869
Rp5870
ag2
(g6
S'\x9cO\x80>'
p5871
tp5872
Rp5873
ag2
(g6
S'p\x95|>'
p5874
tp5875
Rp5876
ag2
(g6
S'4\xca\x8c>'
p5877
tp5878
Rp5879
ag2
(g6
S'P\xd4g>'
p5880
tp5881
Rp5882
ag2
(g6
S'8\xf1\x90>'
p5883
tp5884
Rp5885
ag2
(g6
S'\xd0+\x85>'
p5886
tp5887
Rp5888
ag2
(g6
S'\xe8\xe1\x88>'
p5889
tp5890
Rp5891
ag2
(g6
S'\x98\xd4\x85>'
p5892
tp5893
Rp5894
ag2
(g6
S'(9\x81>'
p5895
tp5896
Rp5897
ag2
(g6
S'\xfc\xb9\xa0>'
p5898
tp5899
Rp5900
ag2
(g6
S'\xf8\xe6\x86>'
p5901
tp5902
Rp5903
ag2
(g6
S'\xc0\x9a\x89>'
p5904
tp5905
Rp5906
ag2
(g6
S'\xa8\xb8\x87>'
p5907
tp5908
Rp5909
ag2
(g6
S'\xfc\x84\x84>'
p5910
tp5911
Rp5912
ag2
(g6
S'\xa8a\x7f>'
p5913
tp5914
Rp5915
ag2
(g6
S'@5\x86>'
p5916
tp5917
Rp5918
ag2
(g6
S'\x0c\xa5\xa0>'
p5919
tp5920
Rp5921
ag2
(g6
S'8l\x91>'
p5922
tp5923
Rp5924
ag2
(g6
S'x\xd4x>'
p5925
tp5926
Rp5927
ag2
(g6
S'X\xa2\x93>'
p5928
tp5929
Rp5930
ag2
(g6
S'\xbc\xe7\x91>'
p5931
tp5932
Rp5933
ag2
(g6
S'\xe4v\x97>'
p5934
tp5935
Rp5936
ag2
(g6
S'\xf8\xa7\x81>'
p5937
tp5938
Rp5939
ag2
(g6
S'\xd0\xdc\x82>'
p5940
tp5941
Rp5942
ag2
(g6
S'\x10\xb8}>'
p5943
tp5944
Rp5945
ag2
(g6
S'\x8c\xc7\x81>'
p5946
tp5947
Rp5948
ag2
(g6
S'\x18\xc9\x8e>'
p5949
tp5950
Rp5951
ag2
(g6
S'Xs\x85>'
p5952
tp5953
Rp5954
ag2
(g6
S'\x10E\x84>'
p5955
tp5956
Rp5957
ag2
(g6
S't\xdf\x8c>'
p5958
tp5959
Rp5960
ag2
(g6
S'(S\x8c>'
p5961
tp5962
Rp5963
ag2
(g6
S'$a\x89>'
p5964
tp5965
Rp5966
ag2
(g6
S'\xc0\x8d\x8e>'
p5967
tp5968
Rp5969
ag2
(g6
S'\x08\xc8\x80>'
p5970
tp5971
Rp5972
ag2
(g6
S'@\xe6\x8d>'
p5973
tp5974
Rp5975
ag2
(g6
S'x\x99}>'
p5976
tp5977
Rp5978
ag2
(g6
S'\x9c\x10\x9a>'
p5979
tp5980
Rp5981
ag2
(g6
S'\x88\x85\x8d>'
p5982
tp5983
Rp5984
ag2
(g6
S'\xcc@\x89>'
p5985
tp5986
Rp5987
ag2
(g6
S'\x10|\x99>'
p5988
tp5989
Rp5990
ag2
(g6
S'LE\x94>'
p5991
tp5992
Rp5993
ag2
(g6
S'\x90S\xa3>'
p5994
tp5995
Rp5996
ag2
(g6
S'|\xa8\x88>'
p5997
tp5998
Rp5999
ag2
(g6
S'\x10Uz>'
p6000
tp6001
Rp6002
ag2
(g6
S'0\xb9\x8b>'
p6003
tp6004
Rp6005
ag2
(g6
S'\xf4\xbf\x86>'
p6006
tp6007
Rp6008
ag2
(g6
S'H\x84\x8f>'
p6009
tp6010
Rp6011
ag2
(g6
S'H\xcdy>'
p6012
tp6013
Rp6014
ag2
(g6
S'\xfc\xf2\x8a>'
p6015
tp6016
Rp6017
ag2
(g6
S'H\x16\x89>'
p6018
tp6019
Rp6020
ag2
(g6
S"0'\x94>"
p6021
tp6022
Rp6023
ag2
(g6
S'\xc8U\x95>'
p6024
tp6025
Rp6026
ag2
(g6
S'D\xe2\x96>'
p6027
tp6028
Rp6029
ag2
(g6
S'\xec\x91\x89>'
p6030
tp6031
Rp6032
ag2
(g6
S'\xb8l\x82>'
p6033
tp6034
Rp6035
ag2
(g6
S'\xe8\xc4\x87>'
p6036
tp6037
Rp6038
ag2
(g6
S'\xf8\xca\x8d>'
p6039
tp6040
Rp6041
ag2
(g6
S'\xc0\xban>'
p6042
tp6043
Rp6044
ag2
(g6
S'\xfc!\x8d>'
p6045
tp6046
Rp6047
ag2
(g6
S'\xac\xa6\x98>'
p6048
tp6049
Rp6050
ag2
(g6
S'\xd44\x82>'
p6051
tp6052
Rp6053
ag2
(g6
S'T\xd2\x8d>'
p6054
tp6055
Rp6056
ag2
(g6
S'\x94+\x88>'
p6057
tp6058
Rp6059
ag2
(g6
S'X\xf0\x8e>'
p6060
tp6061
Rp6062
ag2
(g6
S'd\xe4\x81>'
p6063
tp6064
Rp6065
ag2
(g6
S'x\xe3\x8b>'
p6066
tp6067
Rp6068
ag2
(g6
S'\x14p\x82>'
p6069
tp6070
Rp6071
ag2
(g6
S'\x0c\xc8\x83>'
p6072
tp6073
Rp6074
ag2
(g6
S'l\n\x88>'
p6075
tp6076
Rp6077
ag2
(g6
S'4T\x8a>'
p6078
tp6079
Rp6080
ag2
(g6
S'\x08i\x99>'
p6081
tp6082
Rp6083
ag2
(g6
S'\x00\xc5\x86>'
p6084
tp6085
Rp6086
ag2
(g6
S'\xa8+\x83>'
p6087
tp6088
Rp6089
ag2
(g6
S'\x80\xd8\x7f>'
p6090
tp6091
Rp6092
ag2
(g6
S'\xc0\x12\x8d>'
p6093
tp6094
Rp6095
ag2
(g6
S'\xa0\xfb\x97>'
p6096
tp6097
Rp6098
ag2
(g6
S'D\xe1\x81>'
p6099
tp6100
Rp6101
ag2
(g6
S",'\x98>"
p6102
tp6103
Rp6104
ag2
(g6
S'X\x99\x88>'
p6105
tp6106
Rp6107
ag2
(g6
S'8\xb1\x89>'
p6108
tp6109
Rp6110
ag2
(g6
S'\x04\xb5\x8d>'
p6111
tp6112
Rp6113
ag2
(g6
S'\xa0\xe0\x8b>'
p6114
tp6115
Rp6116
ag2
(g6
S'H\xa8}>'
p6117
tp6118
Rp6119
ag2
(g6
S'\xb0\xa6\x81>'
p6120
tp6121
Rp6122
ag2
(g6
S'\xc8\xbfr>'
p6123
tp6124
Rp6125
ag2
(g6
S'`\x85~>'
p6126
tp6127
Rp6128
ag2
(g6
S'\xfc\x03\x91>'
p6129
tp6130
Rp6131
ag2
(g6
S'@\x04\x90>'
p6132
tp6133
Rp6134
ag2
(g6
S'\xdcy\x87>'
p6135
tp6136
Rp6137
ag2
(g6
S'L3\x84>'
p6138
tp6139
Rp6140
ag2
(g6
S'd\xbd\x8d>'
p6141
tp6142
Rp6143
ag2
(g6
S'\xa8qv>'
p6144
tp6145
Rp6146
ag2
(g6
S'\xac7\x83>'
p6147
tp6148
Rp6149
ag2
(g6
S'h\x85\x9a>'
p6150
tp6151
Rp6152
ag2
(g6
S'p\xc4\x8b>'
p6153
tp6154
Rp6155
ag2
(g6
S'\xdc\xa4\x8f>'
p6156
tp6157
Rp6158
ag2
(g6
S'\xc8\xcb\x82>'
p6159
tp6160
Rp6161
ag2
(g6
S'tN\x96>'
p6162
tp6163
Rp6164
ag2
(g6
S'hr\x8b>'
p6165
tp6166
Rp6167
ag2
(g6
S'\xa8\xa9\x8b>'
p6168
tp6169
Rp6170
ag2
(g6
S't\xd9\x8a>'
p6171
tp6172
Rp6173
ag2
(g6
S'\xb8\x7f\x86>'
p6174
tp6175
Rp6176
ag2
(g6
S'\xc0\xd1\x81>'
p6177
tp6178
Rp6179
ag2
(g6
S'\x18\xfb\x82>'
p6180
tp6181
Rp6182
ag2
(g6
S'\x08r\x8a>'
p6183
tp6184
Rp6185
ag2
(g6
S'\xc0\xf3\x84>'
p6186
tp6187
Rp6188
ag2
(g6
S'D\xdb\x8d>'
p6189
tp6190
Rp6191
ag2
(g6
S'\x18\xeez>'
p6192
tp6193
Rp6194
ag2
(g6
S'\xf4,\x89>'
p6195
tp6196
Rp6197
ag2
(g6
S'\x90f\x9a>'
p6198
tp6199
Rp6200
ag2
(g6
S'\xd0\x15\x94>'
p6201
tp6202
Rp6203
ag2
(g6
S'\xc0\xedu>'
p6204
tp6205
Rp6206
ag2
(g6
S'\xd4\xfa\x86>'
p6207
tp6208
Rp6209
ag2
(g6
S'do\x8a>'
p6210
tp6211
Rp6212
ag2
(g6
S'\xe4C\x8e>'
p6213
tp6214
Rp6215
ag2
(g6
S'@\x1a\x89>'
p6216
tp6217
Rp6218
ag2
(g6
S'l\x0c\x86>'
p6219
tp6220
Rp6221
ag2
(g6
S'\xe0\xdc\x8b>'
p6222
tp6223
Rp6224
ag2
(g6
S'\xfc\x00\x84>'
p6225
tp6226
Rp6227
ag2
(g6
S'\xc0\r\x86>'
p6228
tp6229
Rp6230
ag2
(g6
S'\x98\xd2\x97>'
p6231
tp6232
Rp6233
ag2
(g6
S'\x98&~>'
p6234
tp6235
Rp6236
ag2
(g6
S'Ld\x84>'
p6237
tp6238
Rp6239
ag2
(g6
S'X\x07v>'
p6240
tp6241
Rp6242
ag2
(g6
S',n\x8d>'
p6243
tp6244
Rp6245
ag2
(g6
S'\xc4D\x83>'
p6246
tp6247
Rp6248
ag2
(g6
S'XZs>'
p6249
tp6250
Rp6251
ag2
(g6
S'\xa0\xd1\x87>'
p6252
tp6253
Rp6254
ag2
(g6
S'T\xee\x81>'
p6255
tp6256
Rp6257
ag2
(g6
S'\xc8\xa9\x8a>'
p6258
tp6259
Rp6260
ag2
(g6
S'\xc4\x1e\x81>'
p6261
tp6262
Rp6263
ag2
(g6
S'\xf4\xea\x88>'
p6264
tp6265
Rp6266
ag2
(g6
S'\xa4X\x8f>'
p6267
tp6268
Rp6269
ag2
(g6
S'\xd8\x8c~>'
p6270
tp6271
Rp6272
ag2
(g6
S'\xd0\x02\x9d>'
p6273
tp6274
Rp6275
ag2
(g6
S'\xcc3\x94>'
p6276
tp6277
Rp6278
ag2
(g6
S'\x1c\x15\x8e>'
p6279
tp6280
Rp6281
ag2
(g6
S'\xcc\xe8\x8a>'
p6282
tp6283
Rp6284
ag2
(g6
S'd\xd2\x87>'
p6285
tp6286
Rp6287
ag2
(g6
S'\x9c\x86\x8c>'
p6288
tp6289
Rp6290
ag2
(g6
S'\xf8O\x84>'
p6291
tp6292
Rp6293
ag2
(g6
S',\xe8\x88>'
p6294
tp6295
Rp6296
ag2
(g6
S'PN\xa1>'
p6297
tp6298
Rp6299
ag2
(g6
S'\xcc9\x85>'
p6300
tp6301
Rp6302
ag2
(g6
S'\xa0r\x8b>'
p6303
tp6304
Rp6305
ag2
(g6
S'\x9c]\x86>'
p6306
tp6307
Rp6308
ag2
(g6
S'\x98\x80\x80>'
p6309
tp6310
Rp6311
ag2
(g6
S'Pa\x99>'
p6312
tp6313
Rp6314
ag2
(g6
S'@\x96\x86>'
p6315
tp6316
Rp6317
ag2
(g6
S' \xe7\x8d>'
p6318
tp6319
Rp6320
ag2
(g6
S'\x18\xf0\x88>'
p6321
tp6322
Rp6323
ag2
(g6
S'x3\x91>'
p6324
tp6325
Rp6326
ag2
(g6
S'Xx\x87>'
p6327
tp6328
Rp6329
ag2
(g6
S'\x98\xd1\x87>'
p6330
tp6331
Rp6332
ag2
(g6
S'\xa0\xef\x85>'
p6333
tp6334
Rp6335
ag2
(g6
S'\xb0`\x81>'
p6336
tp6337
Rp6338
ag2
(g6
S'\x14\x91\x80>'
p6339
tp6340
Rp6341
ag2
(g6
S' \xf2\x89>'
p6342
tp6343
Rp6344
ag2
(g6
S'\xc4\x94\x89>'
p6345
tp6346
Rp6347
ag2
(g6
S'\x1cy\x89>'
p6348
tp6349
Rp6350
ag2
(g6
S'<\x14\x85>'
p6351
tp6352
Rp6353
ag2
(g6
S'\xb0\x0b\x80>'
p6354
tp6355
Rp6356
ag2
(g6
S'\xbcy\x84>'
p6357
tp6358
Rp6359
ag2
(g6
S'\x98p\x84>'
p6360
tp6361
Rp6362
ag2
(g6
S'\xa0\x12\x9f>'
p6363
tp6364
Rp6365
ag2
(g6
S' \x93\x81>'
p6366
tp6367
Rp6368
ag2
(g6
S'\xf0\xb0}>'
p6369
tp6370
Rp6371
ag2
(g6
S'\xe4]\x85>'
p6372
tp6373
Rp6374
ag2
(g6
S'd\x8b\x8a>'
p6375
tp6376
Rp6377
ag2
(g6
S'|2\x95>'
p6378
tp6379
Rp6380
ag2
(g6
S'p\x86}>'
p6381
tp6382
Rp6383
ag2
(g6
S'\x94\xb9\x82>'
p6384
tp6385
Rp6386
ag2
(g6
S'\xb4\xdd\x92>'
p6387
tp6388
Rp6389
ag2
(g6
S'P\xaf\x81>'
p6390
tp6391
Rp6392
ag2
(g6
S'\xe0\x11w>'
p6393
tp6394
Rp6395
ag2
(g6
S'\x04\x86\x83>'
p6396
tp6397
Rp6398
ag2
(g6
S'\xfc\xb3\x85>'
p6399
tp6400
Rp6401
ag2
(g6
S'\xe02\x90>'
p6402
tp6403
Rp6404
ag2
(g6
S'H8j>'
p6405
tp6406
Rp6407
ag2
(g6
S'\x88\xe7\x83>'
p6408
tp6409
Rp6410
ag2
(g6
S'\x98\t\x93>'
p6411
tp6412
Rp6413
ag2
(g6
S'\xac\xff\x8f>'
p6414
tp6415
Rp6416
ag2
(g6
S'h>\x88>'
p6417
tp6418
Rp6419
ag2
(g6
S'\x98\xf3j>'
p6420
tp6421
Rp6422
ag2
(g6
S'\x18o\x83>'
p6423
tp6424
Rp6425
ag2
(g6
S'0<{>'
p6426
tp6427
Rp6428
ag2
(g6
S'\x94\x1f\x8d>'
p6429
tp6430
Rp6431
ag2
(g6
S'\xd8\x85\x91>'
p6432
tp6433
Rp6434
ag2
(g6
S'\xc8Gr>'
p6435
tp6436
Rp6437
ag2
(g6
S'tN\x80>'
p6438
tp6439
Rp6440
ag2
(g6
S'|\xb5\x95>'
p6441
tp6442
Rp6443
ag2
(g6
S'\x08L\x89>'
p6444
tp6445
Rp6446
ag2
(g6
S'\xb0\x82\x8e>'
p6447
tp6448
Rp6449
ag2
(g6
S'\x9c+\x8d>'
p6450
tp6451
Rp6452
ag2
(g6
S'\x08\xfeo>'
p6453
tp6454
Rp6455
ag2
(g6
S'\x846\x80>'
p6456
tp6457
Rp6458
ag2
(g6
S' \xb2\x87>'
p6459
tp6460
Rp6461
ag2
(g6
S'\x18\xc9\x94>'
p6462
tp6463
Rp6464
ag2
(g6
S'hgy>'
p6465
tp6466
Rp6467
ag2
(g6
S'|\xbd\x83>'
p6468
tp6469
Rp6470
ag2
(g6
S'@H\x90>'
p6471
tp6472
Rp6473
ag2
(g6
S'\x1cg\x81>'
p6474
tp6475
Rp6476
ag2
(g6
S'\xb4\n\x9e>'
p6477
tp6478
Rp6479
ag2
(g6
S'@n\x86>'
p6480
tp6481
Rp6482
ag2
(g6
S'x_\x81>'
p6483
tp6484
Rp6485
ag2
(g6
S'8D\x80>'
p6486
tp6487
Rp6488
ag2
(g6
S'0\xf7\x86>'
p6489
tp6490
Rp6491
ag2
(g6
S'\xd0\xef\x8b>'
p6492
tp6493
Rp6494
ag2
(g6
S'H\xa5\x7f>'
p6495
tp6496
Rp6497
ag2
(g6
S'`\x94{>'
p6498
tp6499
Rp6500
ag2
(g6
S'$k\x8e>'
p6501
tp6502
Rp6503
ag2
(g6
S'\x08\\s>'
p6504
tp6505
Rp6506
ag2
(g6
S'\xcc\x8b\x85>'
p6507
tp6508
Rp6509
ag2
(g6
S'\xc0\x88}>'
p6510
tp6511
Rp6512
ag2
(g6
S'p\x02\x86>'
p6513
tp6514
Rp6515
ag2
(g6
S'\xa4\\\x87>'
p6516
tp6517
Rp6518
ag2
(g6
S'\xe8s\x85>'
p6519
tp6520
Rp6521
ag2
(g6
S'tL\x93>'
p6522
tp6523
Rp6524
ag2
(g6
S'D(\x89>'
p6525
tp6526
Rp6527
ag2
(g6
S'\xc4o\x84>'
p6528
tp6529
Rp6530
ag2
(g6
S'\xf0\x0ex>'
p6531
tp6532
Rp6533
ag2
(g6
S'\xa0\xdaw>'
p6534
tp6535
Rp6536
ag2
(g6
S'@\xe7\x8a>'
p6537
tp6538
Rp6539
ag2
(g6
S'\xa0\xf2q>'
p6540
tp6541
Rp6542
ag2
(g6
S'\x90\x9a\x89>'
p6543
tp6544
Rp6545
ag2
(g6
S'<\xcd\x80>'
p6546
tp6547
Rp6548
ag2
(g6
S'heq>'
p6549
tp6550
Rp6551
ag2
(g6
S'\xc8\x04\x88>'
p6552
tp6553
Rp6554
ag2
(g6
S'(/\x92>'
p6555
tp6556
Rp6557
ag2
(g6
S'p\xca\x85>'
p6558
tp6559
Rp6560
ag2
(g6
S'xt\x86>'
p6561
tp6562
Rp6563
ag2
(g6
S'@4\x8a>'
p6564
tp6565
Rp6566
ag2
(g6
S'\x08\xba\x83>'
p6567
tp6568
Rp6569
ag2
(g6
S'\x88?\x8f>'
p6570
tp6571
Rp6572
ag2
(g6
S'T\xcf\x8f>'
p6573
tp6574
Rp6575
ag2
(g6
S'P\xa6y>'
p6576
tp6577
Rp6578
ag2
(g6
S'\xe45\x81>'
p6579
tp6580
Rp6581
ag2
(g6
S'\xd0\x10\x8e>'
p6582
tp6583
Rp6584
ag2
(g6
S'\xb8?\x81>'
p6585
tp6586
Rp6587
ag2
(g6
S'\x0c\xe1\x8f>'
p6588
tp6589
Rp6590
ag2
(g6
S'\x04\xd9\x8d>'
p6591
tp6592
Rp6593
ag2
(g6
S'(\xc8|>'
p6594
tp6595
Rp6596
ag2
(g6
S'\x08\x9c\x83>'
p6597
tp6598
Rp6599
ag2
(g6
S'\x80\xc5\x8e>'
p6600
tp6601
Rp6602
ag2
(g6
S'\xcc\x1f\x84>'
p6603
tp6604
Rp6605
ag2
(g6
S'\x04E\x87>'
p6606
tp6607
Rp6608
ag2
(g6
S'\xb8\xe2\x8f>'
p6609
tp6610
Rp6611
ag2
(g6
S'0{\x8e>'
p6612
tp6613
Rp6614
ag2
(g6
S'4)\x89>'
p6615
tp6616
Rp6617
ag2
(g6
S'\xdc\x8b\x9c>'
p6618
tp6619
Rp6620
ag2
(g6
S'\xa8\xc7\x8c>'
p6621
tp6622
Rp6623
ag2
(g6
S'`h\x86>'
p6624
tp6625
Rp6626
ag2
(g6
S'X\xb0\x8d>'
p6627
tp6628
Rp6629
ag2
(g6
S'h)}>'
p6630
tp6631
Rp6632
ag2
(g6
S'\xbc\xe7\x8f>'
p6633
tp6634
Rp6635
ag2
(g6
S'(\xb7\x93>'
p6636
tp6637
Rp6638
ag2
(g6
S'\x18\xdd\x89>'
p6639
tp6640
Rp6641
ag2
(g6
S'\x10ft>'
p6642
tp6643
Rp6644
ag2
(g6
S'@\xd9\x90>'
p6645
tp6646
Rp6647
ag2
(g6
S'\xc8\xf8s>'
p6648
tp6649
Rp6650
ag2
(g6
S'@\xac~>'
p6651
tp6652
Rp6653
ag2
(g6
S'\x98\xdc\x8b>'
p6654
tp6655
Rp6656
ag2
(g6
S'\xf0\x8b~>'
p6657
tp6658
Rp6659
ag2
(g6
S'\xf8~\x84>'
p6660
tp6661
Rp6662
ag2
(g6
S'|\x1d\x8f>'
p6663
tp6664
Rp6665
ag2
(g6
S'\xb0\xff\x85>'
p6666
tp6667
Rp6668
ag2
(g6
S'\x08\xc7\x81>'
p6669
tp6670
Rp6671
ag2
(g6
S'ppr>'
p6672
tp6673
Rp6674
ag2
(g6
S'(2y>'
p6675
tp6676
Rp6677
ag2
(g6
S'\xfc\xa8\x82>'
p6678
tp6679
Rp6680
ag2
(g6
S'|\xd5\x86>'
p6681
tp6682
Rp6683
ag2
(g6
S'\xe4\xf1\x90>'
p6684
tp6685
Rp6686
ag2
(g6
S'\xe0\xd4\x84>'
p6687
tp6688
Rp6689
ag2
(g6
S'T\xce\x85>'
p6690
tp6691
Rp6692
ag2
(g6
S'\\\x07\x81>'
p6693
tp6694
Rp6695
ag2
(g6
S'\xa8\x92v>'
p6696
tp6697
Rp6698
ag2
(g6
S'\xc4\xd8\x84>'
p6699
tp6700
Rp6701
ag2
(g6
S'\x9c\x0c\x82>'
p6702
tp6703
Rp6704
ag2
(g6
S'|S\x85>'
p6705
tp6706
Rp6707
ag2
(g6
S't\xed\x80>'
p6708
tp6709
Rp6710
ag2
(g6
S'LF\x95>'
p6711
tp6712
Rp6713
ag2
(g6
S'\xcc\x80\x8f>'
p6714
tp6715
Rp6716
ag2
(g6
S'0U\x8a>'
p6717
tp6718
Rp6719
ag2
(g6
S'\x80\x04\x87>'
p6720
tp6721
Rp6722
ag2
(g6
S'\xa0\xa3\x8a>'
p6723
tp6724
Rp6725
ag2
(g6
S'\xd0\xc6u>'
p6726
tp6727
Rp6728
ag2
(g6
S'\xe4\x0f\x8b>'
p6729
tp6730
Rp6731
ag2
(g6
S'\xcc\x18\x8b>'
p6732
tp6733
Rp6734
ag2
(g6
S'0Su>'
p6735
tp6736
Rp6737
ag2
(g6
S'\xa0\x9b\x8e>'
p6738
tp6739
Rp6740
ag2
(g6
S'\x98\x15\x8d>'
p6741
tp6742
Rp6743
ag2
(g6
S'\xe8\xed\x94>'
p6744
tp6745
Rp6746
ag2
(g6
S'\xb8\x17\x87>'
p6747
tp6748
Rp6749
ag2
(g6
S'$\x85\x89>'
p6750
tp6751
Rp6752
ag2
(g6
S'@\xe1\x8c>'
p6753
tp6754
Rp6755
ag2
(g6
S'\xf0x\x92>'
p6756
tp6757
Rp6758
ag2
(g6
S'\x9c\xc4\x87>'
p6759
tp6760
Rp6761
ag2
(g6
S'\xe4\xb0\x8e>'
p6762
tp6763
Rp6764
ag2
(g6
S'\x909\xa0>'
p6765
tp6766
Rp6767
ag2
(g6
S't\x0e\x80>'
p6768
tp6769
Rp6770
ag2
(g6
S'\xfc\x1f\x8a>'
p6771
tp6772
Rp6773
ag2
(g6
S'\x84\xe0\x86>'
p6774
tp6775
Rp6776
ag2
(g6
S'H,y>'
p6777
tp6778
Rp6779
ag2
(g6
S'\x08\x1b\x88>'
p6780
tp6781
Rp6782
ag2
(g6
S' \xac\x88>'
p6783
tp6784
Rp6785
ag2
(g6
S'8\x1f\x86>'
p6786
tp6787
Rp6788
ag2
(g6
S'\x9c\xe5\x90>'
p6789
tp6790
Rp6791
ag2
(g6
S'@\xa3\x96>'
p6792
tp6793
Rp6794
ag2
(g6
S'\xb0mj>'
p6795
tp6796
Rp6797
ag2
(g6
S'd\xf7\x85>'
p6798
tp6799
Rp6800
ag2
(g6
S'<\x04\x94>'
p6801
tp6802
Rp6803
ag2
(g6
S'Pl\x81>'
p6804
tp6805
Rp6806
ag2
(g6
S'\xb8\x10\x85>'
p6807
tp6808
Rp6809
ag2
(g6
S'\xe4\x84\x82>'
p6810
tp6811
Rp6812
ag2
(g6
S'\xc8\x00\x82>'
p6813
tp6814
Rp6815
ag2
(g6
S'\x94\xeb\x88>'
p6816
tp6817
Rp6818
ag2
(g6
S',\x9b\x81>'
p6819
tp6820
Rp6821
ag2
(g6
S'<\xfd\x99>'
p6822
tp6823
Rp6824
ag2
(g6
S'|\xbf\x80>'
p6825
tp6826
Rp6827
ag2
(g6
S'\x98.q>'
p6828
tp6829
Rp6830
ag2
(g6
S'\xc8\x0b\x80>'
p6831
tp6832
Rp6833
ag2
(g6
S'4\x87\x8a>'
p6834
tp6835
Rp6836
ag2
(g6
S' 3\x9a>'
p6837
tp6838
Rp6839
ag2
(g6
S'\x98\x1e\x85>'
p6840
tp6841
Rp6842
ag2
(g6
S'\xdc\xc3\x83>'
p6843
tp6844
Rp6845
ag2
(g6
S'\x88;\x93>'
p6846
tp6847
Rp6848
ag2
(g6
S'\x18\x95\x81>'
p6849
tp6850
Rp6851
ag2
(g6
S'\xd0\x8f|>'
p6852
tp6853
Rp6854
ag2
(g6
S'\xf8\x05\x82>'
p6855
tp6856
Rp6857
ag2
(g6
S'\xb4\xcb\x87>'
p6858
tp6859
Rp6860
ag2
(g6
S'\xf8$\x86>'
p6861
tp6862
Rp6863
ag2
(g6
S'l;\x89>'
p6864
tp6865
Rp6866
ag2
(g6
S'0\x95w>'
p6867
tp6868
Rp6869
ag2
(g6
S'\xc0j\x82>'
p6870
tp6871
Rp6872
ag2
(g6
S'\xb8d\x88>'
p6873
tp6874
Rp6875
ag2
(g6
S'\x886\x82>'
p6876
tp6877
Rp6878
ag2
(g6
S'\xa8\xd4x>'
p6879
tp6880
Rp6881
ag2
(g6
S'\xf0\x8f\x83>'
p6882
tp6883
Rp6884
ag2
(g6
S'8\x06\x8a>'
p6885
tp6886
Rp6887
ag2
(g6
S'\xecv\x88>'
p6888
tp6889
Rp6890
ag2
(g6
S'\xe8\x9fv>'
p6891
tp6892
Rp6893
ag2
(g6
S'\x0cy\x82>'
p6894
tp6895
Rp6896
ag2
(g6
S'\xec\x81\x8d>'
p6897
tp6898
Rp6899
ag2
(g6
S'\xac\xce\x81>'
p6900
tp6901
Rp6902
ag2
(g6
S'\xf4g\x8f>'
p6903
tp6904
Rp6905
ag2
(g6
S'h\xf5\x90>'
p6906
tp6907
Rp6908
ag2
(g6
S'\xcc0\x88>'
p6909
tp6910
Rp6911
ag2
(g6
S'l\xc1\x89>'
p6912
tp6913
Rp6914
ag2
(g6
S'\xa4\x04\x89>'
p6915
tp6916
Rp6917
ag2
(g6
S'(\x8f\x86>'
p6918
tp6919
Rp6920
ag2
(g6
S'h+o>'
p6921
tp6922
Rp6923
ag2
(g6
S'4%\x82>'
p6924
tp6925
Rp6926
ag2
(g6
S'\x04\xa1\x95>'
p6927
tp6928
Rp6929
ag2
(g6
S'\x183{>'
p6930
tp6931
Rp6932
ag2
(g6
S'\xb4\xe3\x94>'
p6933
tp6934
Rp6935
ag2
(g6
S'H\xb9p>'
p6936
tp6937
Rp6938
ag2
(g6
S'\xe0#\x80>'
p6939
tp6940
Rp6941
ag2
(g6
S'P\x06\x8b>'
p6942
tp6943
Rp6944
ag2
(g6
S'\xc8\xd6\x89>'
p6945
tp6946
Rp6947
ag2
(g6
S'\x04\x8f\x85>'
p6948
tp6949
Rp6950
ag2
(g6
S'`\xe9y>'
p6951
tp6952
Rp6953
ag2
(g6
S'D\xc2\x89>'
p6954
tp6955
Rp6956
ag2
(g6
S'\\R\x85>'
p6957
tp6958
Rp6959
ag2
(g6
S'4@\x85>'
p6960
tp6961
Rp6962
ag2
(g6
S'\x98\x80{>'
p6963
tp6964
Rp6965
ag2
(g6
S't\x9a\x8d>'
p6966
tp6967
Rp6968
ag2
(g6
S'`\xaaz>'
p6969
tp6970
Rp6971
ag2
(g6
S'\xc8`\x89>'
p6972
tp6973
Rp6974
ag2
(g6
S'\xa0\xab\x7f>'
p6975
tp6976
Rp6977
ag2
(g6
S'(s\x8e>'
p6978
tp6979
Rp6980
ag2
(g6
S'|q\x82>'
p6981
tp6982
Rp6983
ag2
(g6
S'`\xd8\x7f>'
p6984
tp6985
Rp6986
ag2
(g6
S'\xc8Rn>'
p6987
tp6988
Rp6989
ag2
(g6
S'(\x9cv>'
p6990
tp6991
Rp6992
ag2
(g6
S'L\xe3\x94>'
p6993
tp6994
Rp6995
ag2
(g6
S'p9z>'
p6996
tp6997
Rp6998
ag2
(g6
S'Pa\x84>'
p6999
tp7000
Rp7001
ag2
(g6
S'X&\x87>'
p7002
tp7003
Rp7004
ag2
(g6
S'\x10\x15\x8d>'
p7005
tp7006
Rp7007
ag2
(g6
S'`\xf3\x8c>'
p7008
tp7009
Rp7010
ag2
(g6
S'0\xc2\x84>'
p7011
tp7012
Rp7013
ag2
(g6
S'P\xed\x89>'
p7014
tp7015
Rp7016
ag2
(g6
S'\xb8\xdb\x88>'
p7017
tp7018
Rp7019
ag2
(g6
S'\xec\xa8\x84>'
p7020
tp7021
Rp7022
ag2
(g6
S'\xb0:\x84>'
p7023
tp7024
Rp7025
ag2
(g6
S'\xa4-\x86>'
p7026
tp7027
Rp7028
ag2
(g6
S'\xcc\xc4\x98>'
p7029
tp7030
Rp7031
ag2
(g6
S'<\x1d\x86>'
p7032
tp7033
Rp7034
ag2
(g6
S'\xe0J\x83>'
p7035
tp7036
Rp7037
ag2
(g6
S'L}\x8f>'
p7038
tp7039
Rp7040
ag2
(g6
S'\xc8L\x82>'
p7041
tp7042
Rp7043
ag2
(g6
S'\xd4\xf3\x94>'
p7044
tp7045
Rp7046
ag2
(g6
S'X(\x8c>'
p7047
tp7048
Rp7049
ag2
(g6
S'\x84!\x84>'
p7050
tp7051
Rp7052
ag2
(g6
S'XHv>'
p7053
tp7054
Rp7055
ag2
(g6
S'\xa8+}>'
p7056
tp7057
Rp7058
ag2
(g6
S'\xd0$\x80>'
p7059
tp7060
Rp7061
ag2
(g6
S'\xe8\x8ev>'
p7062
tp7063
Rp7064
ag2
(g6
S'\xf0nr>'
p7065
tp7066
Rp7067
ag2
(g6
S'H\xe9w>'
p7068
tp7069
Rp7070
ag2
(g6
S'\xec\xdd\x83>'
p7071
tp7072
Rp7073
ag2
(g6
S'\xe4)\x8d>'
p7074
tp7075
Rp7076
ag2
(g6
S'0\xe6}>'
p7077
tp7078
Rp7079
ag2
(g6
S'\x94}\x88>'
p7080
tp7081
Rp7082
ag2
(g6
S'\x08\x8a\x83>'
p7083
tp7084
Rp7085
ag2
(g6
S'Lr\x80>'
p7086
tp7087
Rp7088
ag2
(g6
S'\x18\xa1\x87>'
p7089
tp7090
Rp7091
ag2
(g6
S'P\x1fy>'
p7092
tp7093
Rp7094
ag2
(g6
S'\xd4\x83\x81>'
p7095
tp7096
Rp7097
ag2
(g6
S' \x1c\x8a>'
p7098
tp7099
Rp7100
ag2
(g6
S'p\x7f\x81>'
p7101
tp7102
Rp7103
ag2
(g6
S'\x80By>'
p7104
tp7105
Rp7106
ag2
(g6
S'dv\x80>'
p7107
tp7108
Rp7109
ag2
(g6
S'D\x1c\x84>'
p7110
tp7111
Rp7112
ag2
(g6
S'\xe8\xcd\x9c>'
p7113
tp7114
Rp7115
ag2
(g6
S'<q\x80>'
p7116
tp7117
Rp7118
ag2
(g6
S'\xf0\x1b\x94>'
p7119
tp7120
Rp7121
ag2
(g6
S'\x80\x85\x80>'
p7122
tp7123
Rp7124
ag2
(g6
S'\xe0\xb9k>'
p7125
tp7126
Rp7127
ag2
(g6
S'\xf0Y\x8b>'
p7128
tp7129
Rp7130
ag2
(g6
S'\xb8\x0e}>'
p7131
tp7132
Rp7133
ag2
(g6
S'|A\x8b>'
p7134
tp7135
Rp7136
ag2
(g6
S'\xc0\xe8\x8a>'
p7137
tp7138
Rp7139
ag2
(g6
S'\xf8zb>'
p7140
tp7141
Rp7142
ag2
(g6
S'\x00\xc8\x89>'
p7143
tp7144
Rp7145
ag2
(g6
S'x<p>'
p7146
tp7147
Rp7148
ag2
(g6
S'\xcca\x89>'
p7149
tp7150
Rp7151
ag2
(g6
S'\xb8l|>'
p7152
tp7153
Rp7154
ag2
(g6
S'\x08\xb1\x9a>'
p7155
tp7156
Rp7157
ag2
(g6
S'\xb4\xcd\x8c>'
p7158
tp7159
Rp7160
ag2
(g6
S'\xf4>\x81>'
p7161
tp7162
Rp7163
ag2
(g6
S'@0\x92>'
p7164
tp7165
Rp7166
ag2
(g6
S'\xb4\xbb\x81>'
p7167
tp7168
Rp7169
ag2
(g6
S'\xc0\x19\x85>'
p7170
tp7171
Rp7172
ag2
(g6
S'\xb8\xa0\x82>'
p7173
tp7174
Rp7175
ag2
(g6
S'\x94\xa6\x83>'
p7176
tp7177
Rp7178
ag2
(g6
S'\xd4\xb0\x83>'
p7179
tp7180
Rp7181
ag2
(g6
S'8\xb2\x86>'
p7182
tp7183
Rp7184
ag2
(g6
S'\xd8+t>'
p7185
tp7186
Rp7187
ag2
(g6
S'\xec\xd4\x8c>'
p7188
tp7189
Rp7190
ag2
(g6
S'\x80ok>'
p7191
tp7192
Rp7193
ag2
(g6
S'\xe0\xc0\x88>'
p7194
tp7195
Rp7196
ag2
(g6
S'\x90Ir>'
p7197
tp7198
Rp7199
ag2
(g6
S'\x90\xc8s>'
p7200
tp7201
Rp7202
ag2
(g6
S'\x9c@\x80>'
p7203
tp7204
Rp7205
ag2
(g6
S'dm\x87>'
p7206
tp7207
Rp7208
ag2
(g6
S'\x9c4\x91>'
p7209
tp7210
Rp7211
ag2
(g6
S'\xc0\xc1}>'
p7212
tp7213
Rp7214
ag2
(g6
S'\x00\xf2\x82>'
p7215
tp7216
Rp7217
ag2
(g6
S'|x\x95>'
p7218
tp7219
Rp7220
ag2
(g6
S'\\v\x89>'
p7221
tp7222
Rp7223
ag2
(g6
S'\xc87\x80>'
p7224
tp7225
Rp7226
ag2
(g6
S' \xdfq>'
p7227
tp7228
Rp7229
ag2
(g6
S'8W\x8f>'
p7230
tp7231
Rp7232
ag2
(g6
S'H\xfa~>'
p7233
tp7234
Rp7235
ag2
(g6
S'\x18\xcfy>'
p7236
tp7237
Rp7238
ag2
(g6
S'\x18\xe7\x81>'
p7239
tp7240
Rp7241
ag2
(g6
S'\xf8\x19\x7f>'
p7242
tp7243
Rp7244
ag2
(g6
S'\xc4\x94\x88>'
p7245
tp7246
Rp7247
ag2
(g6
S'\xc8\x15\x7f>'
p7248
tp7249
Rp7250
ag2
(g6
S'\xe0\x0ez>'
p7251
tp7252
Rp7253
ag2
(g6
S'\xa0M~>'
p7254
tp7255
Rp7256
ag2
(g6
S'4\x84\x98>'
p7257
tp7258
Rp7259
ag2
(g6
S'(\xa6\x88>'
p7260
tp7261
Rp7262
ag2
(g6
S'\xac\xbb\x92>'
p7263
tp7264
Rp7265
ag2
(g6
S'\xc0\x05{>'
p7266
tp7267
Rp7268
ag2
(g6
S'\x84\x83\x97>'
p7269
tp7270
Rp7271
ag2
(g6
S'\xd4\x9f\x80>'
p7272
tp7273
Rp7274
ag2
(g6
S'X1u>'
p7275
tp7276
Rp7277
ag2
(g6
S'\xa4G\x8a>'
p7278
tp7279
Rp7280
ag2
(g6
S'`5g>'
p7281
tp7282
Rp7283
ag2
(g6
S'p\x1e{>'
p7284
tp7285
Rp7286
ag2
(g6
S'\x98\x13\x7f>'
p7287
tp7288
Rp7289
ag2
(g6
S'\x94\xa6\x87>'
p7290
tp7291
Rp7292
ag2
(g6
S'\xe4O\x80>'
p7293
tp7294
Rp7295
ag2
(g6
S'\xe4D\x84>'
p7296
tp7297
Rp7298
ag2
(g6
S'\xec\x89\x83>'
p7299
tp7300
Rp7301
ag2
(g6
S'8Hl>'
p7302
tp7303
Rp7304
ag2
(g6
S'lP\x8a>'
p7305
tp7306
Rp7307
ag2
(g6
S'\x98r\x8f>'
p7308
tp7309
Rp7310
ag2
(g6
S'8\x94{>'
p7311
tp7312
Rp7313
ag2
(g6
S'`\x99w>'
p7314
tp7315
Rp7316
ag2
(g6
S'\x903x>'
p7317
tp7318
Rp7319
ag2
(g6
S'\x9c\xc0\x90>'
p7320
tp7321
Rp7322
ag2
(g6
S'xa\x82>'
p7323
tp7324
Rp7325
ag2
(g6
S'<|\x82>'
p7326
tp7327
Rp7328
ag2
(g6
S'0\x9f|>'
p7329
tp7330
Rp7331
ag2
(g6
S'Lq\x94>'
p7332
tp7333
Rp7334
ag2
(g6
S'\xf0\xcd~>'
p7335
tp7336
Rp7337
ag2
(g6
S'\xb8k\x95>'
p7338
tp7339
Rp7340
ag2
(g6
S'\x10\xc2\x86>'
p7341
tp7342
Rp7343
ag2
(g6
S'\xf0\x8bv>'
p7344
tp7345
Rp7346
ag2
(g6
S'\xb4:\x85>'
p7347
tp7348
Rp7349
ag2
(g6
S'\xc0!z>'
p7350
tp7351
Rp7352
ag2
(g6
S'\x80\xa0\x84>'
p7353
tp7354
Rp7355
ag2
(g6
S',\x04\x8a>'
p7356
tp7357
Rp7358
ag2
(g6
S'h\xd5\x87>'
p7359
tp7360
Rp7361
ag2
(g6
S'\x08\t\x87>'
p7362
tp7363
Rp7364
ag2
(g6
S'\x1c\x8a\x85>'
p7365
tp7366
Rp7367
ag2
(g6
S'\xb0L|>'
p7368
tp7369
Rp7370
ag2
(g6
S'\x88s\x86>'
p7371
tp7372
Rp7373
ag2
(g6
S'\xa8\xfb\x84>'
p7374
tp7375
Rp7376
ag2
(g6
S'\x94\x0b\x8a>'
p7377
tp7378
Rp7379
ag2
(g6
S'\xb06z>'
p7380
tp7381
Rp7382
ag2
(g6
S'\xc8\xd8x>'
p7383
tp7384
Rp7385
ag2
(g6
S'P\x12\x86>'
p7386
tp7387
Rp7388
ag2
(g6
S'\xe0[q>'
p7389
tp7390
Rp7391
ag2
(g6
S'\xcc\xcf\x84>'
p7392
tp7393
Rp7394
ag2
(g6
S'l\x1f\x85>'
p7395
tp7396
Rp7397
ag2
(g6
S'40\x81>'
p7398
tp7399
Rp7400
ag2
(g6
S'\xf8\\\x8b>'
p7401
tp7402
Rp7403
ag2
(g6
S'\x18\xdc\x81>'
p7404
tp7405
Rp7406
ag2
(g6
S'\x08\xef\x87>'
p7407
tp7408
Rp7409
ag2
(g6
S'8as>'
p7410
tp7411
Rp7412
ag2
(g6
S' /{>'
p7413
tp7414
Rp7415
ag2
(g6
S'\xf4\x0b\x83>'
p7416
tp7417
Rp7418
ag2
(g6
S'8\xd0{>'
p7419
tp7420
Rp7421
ag2
(g6
S'\x840\x89>'
p7422
tp7423
Rp7424
ag2
(g6
S'\xe4C\x90>'
p7425
tp7426
Rp7427
ag2
(g6
S'H\x14\x82>'
p7428
tp7429
Rp7430
ag2
(g6
S' q]>'
p7431
tp7432
Rp7433
ag2
(g6
S'\x80\xcfn>'
p7434
tp7435
Rp7436
ag2
(g6
S'LY\x84>'
p7437
tp7438
Rp7439
ag2
(g6
S'`\xfdx>'
p7440
tp7441
Rp7442
ag2
(g6
S'\xc0\xba\x92>'
p7443
tp7444
Rp7445
ag2
(g6
S'\xa8\xca|>'
p7446
tp7447
Rp7448
ag2
(g6
S'\x18\xe5\x7f>'
p7449
tp7450
Rp7451
ag2
(g6
S'$\x80\x98>'
p7452
tp7453
Rp7454
ag2
(g6
S'\xcc\xd4\x86>'
p7455
tp7456
Rp7457
ag2
(g6
S'T\xf7\x83>'
p7458
tp7459
Rp7460
ag2
(g6
S'\xc8\x1c\x7f>'
p7461
tp7462
Rp7463
ag2
(g6
S'P\xe5s>'
p7464
tp7465
Rp7466
ag2
(g6
S'(\xe9p>'
p7467
tp7468
Rp7469
ag2
(g6
S' \xc0\x81>'
p7470
tp7471
Rp7472
ag2
(g6
S'\x80\xfb\x87>'
p7473
tp7474
Rp7475
ag2
(g6
S'\xc0\xf1s>'
p7476
tp7477
Rp7478
ag2
(g6
S'T\xa9\x81>'
p7479
tp7480
Rp7481
ag2
(g6
S'\xf8ax>'
p7482
tp7483
Rp7484
ag2
(g6
S'`\x97r>'
p7485
tp7486
Rp7487
ag2
(g6
S'tw\x80>'
p7488
tp7489
Rp7490
ag2
(g6
S'\xc8\x0b\x83>'
p7491
tp7492
Rp7493
ag2
(g6
S'xd\x8a>'
p7494
tp7495
Rp7496
ag2
(g6
S'\x80\xaed>'
p7497
tp7498
Rp7499
ag2
(g6
S'\xccq\x8a>'
p7500
tp7501
Rp7502
ag2
(g6
S'`\xfa{>'
p7503
tp7504
Rp7505
ag2
(g6
S'h\xa0\x85>'
p7506
tp7507
Rp7508
ag2
(g6
S'\x80\xe2w>'
p7509
tp7510
Rp7511
ag2
(g6
S'\xd0*~>'
p7512
tp7513
Rp7514
ag2
(g6
S'p s>'
p7515
tp7516
Rp7517
ag2
(g6
S'\\\x88\x8f>'
p7518
tp7519
Rp7520
ag2
(g6
S'\xf4E\x8f>'
p7521
tp7522
Rp7523
ag2
(g6
S'\xf8Fz>'
p7524
tp7525
Rp7526
ag2
(g6
S'\xd4\xaf\x85>'
p7527
tp7528
Rp7529
ag2
(g6
S'\x08\xf4r>'
p7530
tp7531
Rp7532
ag2
(g6
S'\xc0\x8ef>'
p7533
tp7534
Rp7535
ag2
(g6
S'\xe0\x90\x89>'
p7536
tp7537
Rp7538
ag2
(g6
S'\xe8\xd6r>'
p7539
tp7540
Rp7541
ag2
(g6
S'\x10\x94\x89>'
p7542
tp7543
Rp7544
ag2
(g6
S'\x0cL\x81>'
p7545
tp7546
Rp7547
ag2
(g6
S'\xe4\x90\x82>'
p7548
tp7549
Rp7550
ag2
(g6
S'\x10\t\x85>'
p7551
tp7552
Rp7553
ag2
(g6
S'<z\x84>'
p7554
tp7555
Rp7556
ag2
(g6
S'\xb0\t|>'
p7557
tp7558
Rp7559
ag2
(g6
S'\x04)\x84>'
p7560
tp7561
Rp7562
ag2
(g6
S'\xf0\xe9\x80>'
p7563
tp7564
Rp7565
ag2
(g6
S'\xfc<\x87>'
p7566
tp7567
Rp7568
ag2
(g6
S'\xfc0\x8a>'
p7569
tp7570
Rp7571
ag2
(g6
S'`\xcf\x83>'
p7572
tp7573
Rp7574
ag2
(g6
S'x5z>'
p7575
tp7576
Rp7577
ag2
(g6
S'\xa8\xafx>'
p7578
tp7579
Rp7580
ag2
(g6
S'\x98B}>'
p7581
tp7582
Rp7583
ag2
(g6
S'\xbc1\x82>'
p7584
tp7585
Rp7586
ag2
(g6
S'\xe8\xec\x85>'
p7587
tp7588
Rp7589
ag2
(g6
S'\xf8\r\x8a>'
p7590
tp7591
Rp7592
ag2
(g6
S'\xdc\xea\x97>'
p7593
tp7594
Rp7595
ag2
(g6
S'\xa8\xbe\x8d>'
p7596
tp7597
Rp7598
ag2
(g6
S'<\xc4\x88>'
p7599
tp7600
Rp7601
ag2
(g6
S'8\xd7\x83>'
p7602
tp7603
Rp7604
ag2
(g6
S'\x0cX\x87>'
p7605
tp7606
Rp7607
ag2
(g6
S'\xe4\xc8\x8e>'
p7608
tp7609
Rp7610
ag2
(g6
S'\xa0\xb2\x7f>'
p7611
tp7612
Rp7613
ag2
(g6
S'\xc0\xecy>'
p7614
tp7615
Rp7616
ag2
(g6
S'X\xf7\x87>'
p7617
tp7618
Rp7619
ag2
(g6
S' \xfbt>'
p7620
tp7621
Rp7622
ag2
(g6
S'DH\x96>'
p7623
tp7624
Rp7625
ag2
(g6
S'\xc8tu>'
p7626
tp7627
Rp7628
ag2
(g6
S'\xe8J~>'
p7629
tp7630
Rp7631
ag2
(g6
S'8\xa1\x87>'
p7632
tp7633
Rp7634
ag2
(g6
S'\x08\x04i>'
p7635
tp7636
Rp7637
ag2
(g6
S'\x18\x02y>'
p7638
tp7639
Rp7640
ag2
(g6
S'H\x1fp>'
p7641
tp7642
Rp7643
ag2
(g6
S'\xe0\xf2y>'
p7644
tp7645
Rp7646
ag2
(g6
S' \xbdw>'
p7647
tp7648
Rp7649
ag2
(g6
S'\xe0\x0cz>'
p7650
tp7651
Rp7652
ag2
(g6
S'\x04l\x81>'
p7653
tp7654
Rp7655
ag2
(g6
S'8U\x90>'
p7656
tp7657
Rp7658
ag2
(g6
S'P\xcb{>'
p7659
tp7660
Rp7661
ag2
(g6
S'\x94E\x81>'
p7662
tp7663
Rp7664
ag2
(g6
S'\xe0\x89x>'
p7665
tp7666
Rp7667
ag2
(g6
S' Gz>'
p7668
tp7669
Rp7670
ag2
(g6
S'\xa4\x92\x89>'
p7671
tp7672
Rp7673
ag2
(g6
S'\xd8U\x80>'
p7674
tp7675
Rp7676
ag2
(g6
S'\xa8O|>'
p7677
tp7678
Rp7679
ag2
(g6
S'P\x98\x94>'
p7680
tp7681
Rp7682
ag2
(g6
S'\xd8\xbdw>'
p7683
tp7684
Rp7685
ag2
(g6
S'\x0c=\x89>'
p7686
tp7687
Rp7688
ag2
(g6
S'\x00Eq>'
p7689
tp7690
Rp7691
ag2
(g6
S'\xcc%\x8e>'
p7692
tp7693
Rp7694
ag2
(g6
S'\xe8\xb4e>'
p7695
tp7696
Rp7697
ag2
(g6
S'\xc0\xbep>'
p7698
tp7699
Rp7700
ag2
(g6
S'hH\x88>'
p7701
tp7702
Rp7703
ag2
(g6
S'\x98\x85\x83>'
p7704
tp7705
Rp7706
ag2
(g6
S'\xc8\x0fv>'
p7707
tp7708
Rp7709
ag2
(g6
S'h\xcd\x93>'
p7710
tp7711
Rp7712
ag2
(g6
S'\xa8ow>'
p7713
tp7714
Rp7715
ag2
(g6
S'\x84\x8d\x80>'
p7716
tp7717
Rp7718
ag2
(g6
S'\xe8!~>'
p7719
tp7720
Rp7721
ag2
(g6
S'H\xaf\x87>'
p7722
tp7723
Rp7724
ag2
(g6
S'0[\x89>'
p7725
tp7726
Rp7727
ag2
(g6
S'\xf0&\x7f>'
p7728
tp7729
Rp7730
ag2
(g6
S'(\x97\x80>'
p7731
tp7732
Rp7733
ag2
(g6
S'l\xb0\x84>'
p7734
tp7735
Rp7736
ag2
(g6
S'\xf0\xfce>'
p7737
tp7738
Rp7739
ag2
(g6
S'p\xb8\x9f>'
p7740
tp7741
Rp7742
ag2
(g6
S'\xfcU\x8c>'
p7743
tp7744
Rp7745
ag2
(g6
S'(\x90|>'
p7746
tp7747
Rp7748
ag2
(g6
S'\x88\x13z>'
p7749
tp7750
Rp7751
ag2
(g6
S'H\xf2|>'
p7752
tp7753
Rp7754
ag2
(g6
S'\xf4\x13\x83>'
p7755
tp7756
Rp7757
ag2
(g6
S'\xe4^\x95>'
p7758
tp7759
Rp7760
ag2
(g6
S'\x90\xf3\x84>'
p7761
tp7762
Rp7763
ag2
(g6
S'X\xb1u>'
p7764
tp7765
Rp7766
ag2
(g6
S'@\xb8\x86>'
p7767
tp7768
Rp7769
ag2
(g6
S'P\xabz>'
p7770
tp7771
Rp7772
ag2
(g6
S'@\xd5~>'
p7773
tp7774
Rp7775
ag2
(g6
S'\x80\xab{>'
p7776
tp7777
Rp7778
ag2
(g6
S'<a\x80>'
p7779
tp7780
Rp7781
ag2
(g6
S'\xe8\xbfy>'
p7782
tp7783
Rp7784
ag2
(g6
S'(\x9a\x86>'
p7785
tp7786
Rp7787
ag2
(g6
S'\xe4=\x88>'
p7788
tp7789
Rp7790
ag2
(g6
S'\x98(\x84>'
p7791
tp7792
Rp7793
ag2
(g6
S'\xc0\xfed>'
p7794
tp7795
Rp7796
ag2
(g6
S'\x08\xb6\x86>'
p7797
tp7798
Rp7799
ag2
(g6
S'\\q\x86>'
p7800
tp7801
Rp7802
ag2
(g6
S' \xe5\x81>'
p7803
tp7804
Rp7805
ag2
(g6
S'4\x00\x87>'
p7806
tp7807
Rp7808
ag2
(g6
S'\x10\x1ez>'
p7809
tp7810
Rp7811
ag2
(g6
S'X\xbe{>'
p7812
tp7813
Rp7814
ag2
(g6
S'\xa0\xfej>'
p7815
tp7816
Rp7817
ag2
(g6
S'\xfcf\x90>'
p7818
tp7819
Rp7820
ag2
(g6
S'\xe8\xf5\x9d>'
p7821
tp7822
Rp7823
ag2
(g6
S'\xc0\x8f\x8e>'
p7824
tp7825
Rp7826
ag2
(g6
S'\xac\xab\x84>'
p7827
tp7828
Rp7829
ag2
(g6
S'\x10K\x84>'
p7830
tp7831
Rp7832
ag2
(g6
S'P\x7f\x81>'
p7833
tp7834
Rp7835
ag2
(g6
S'0\xcce>'
p7836
tp7837
Rp7838
ag2
(g6
S'8!u>'
p7839
tp7840
Rp7841
ag2
(g6
S'0\x97j>'
p7842
tp7843
Rp7844
ag2
(g6
S'@\xf8`>'
p7845
tp7846
Rp7847
ag2
(g6
S'\xe8\xbaz>'
p7848
tp7849
Rp7850
ag2
(g6
S'`\xf1~>'
p7851
tp7852
Rp7853
ag2
(g6
S'`\xcd}>'
p7854
tp7855
Rp7856
ag2
(g6
S'\xa0\x10~>'
p7857
tp7858
Rp7859
ag2
(g6
S'\x1c\x9d\x88>'
p7860
tp7861
Rp7862
ag2
(g6
S'Paz>'
p7863
tp7864
Rp7865
ag2
(g6
S'h\x8bm>'
p7866
tp7867
Rp7868
ag2
(g6
S'Ts\x81>'
p7869
tp7870
Rp7871
ag2
(g6
S'\x90\x95q>'
p7872
tp7873
Rp7874
ag2
(g6
S'\xb8\xca\x8c>'
p7875
tp7876
Rp7877
ag2
(g6
S'8Q\x96>'
p7878
tp7879
Rp7880
ag2
(g6
S'\x88\x9d\x83>'
p7881
tp7882
Rp7883
ag2
(g6
S'D7\x85>'
p7884
tp7885
Rp7886
ag2
(g6
S'\xc0#y>'
p7887
tp7888
Rp7889
ag2
(g6
S'\xe0\x7f\x81>'
p7890
tp7891
Rp7892
ag2
(g6
S'X-\x8f>'
p7893
tp7894
Rp7895
ag2
(g6
S'\xccK\x86>'
p7896
tp7897
Rp7898
ag2
(g6
S'hv\x8d>'
p7899
tp7900
Rp7901
ag2
(g6
S'\xe0\x83q>'
p7902
tp7903
Rp7904
ag2
(g6
S'X\xf6\x82>'
p7905
tp7906
Rp7907
ag2
(g6
S'0p{>'
p7908
tp7909
Rp7910
ag2
(g6
S'l8\x8e>'
p7911
tp7912
Rp7913
ag2
(g6
S'\x9c^\x83>'
p7914
tp7915
Rp7916
ag2
(g6
S'\x846\x83>'
p7917
tp7918
Rp7919
ag2
(g6
S'\xf0\x04\x81>'
p7920
tp7921
Rp7922
ag2
(g6
S'\x80_n>'
p7923
tp7924
Rp7925
ag2
(g6
S'\x98\x92k>'
p7926
tp7927
Rp7928
ag2
(g6
S'Pkj>'
p7929
tp7930
Rp7931
ag2
(g6
S'\xbc\xe3\x8d>'
p7932
tp7933
Rp7934
ag2
(g6
S'\x186\x81>'
p7935
tp7936
Rp7937
ag2
(g6
S'\x84\xb0\x8b>'
p7938
tp7939
Rp7940
ag2
(g6
S'p,f>'
p7941
tp7942
Rp7943
ag2
(g6
S'\xb0\xdf~>'
p7944
tp7945
Rp7946
ag2
(g6
S'\xf0\xb0P>'
p7947
tp7948
Rp7949
ag2
(g6
S'\x10\xb7\x8c>'
p7950
tp7951
Rp7952
ag2
(g6
S'\xa0\xfde>'
p7953
tp7954
Rp7955
ag2
(g6
S'l\xc4\x81>'
p7956
tp7957
Rp7958
ag2
(g6
S'4N\x86>'
p7959
tp7960
Rp7961
ag2
(g6
S'\xf8\x90\x88>'
p7962
tp7963
Rp7964
ag2
(g6
S'\xec\x9e\x89>'
p7965
tp7966
Rp7967
ag2
(g6
S'\xe0Jm>'
p7968
tp7969
Rp7970
ag2
(g6
S'\xcco\x85>'
p7971
tp7972
Rp7973
ag2
(g6
S'\x98\x0e\x8b>'
p7974
tp7975
Rp7976
ag2
(g6
S'\xb8\xf2u>'
p7977
tp7978
Rp7979
ag2
(g6
S'\xf0[\x80>'
p7980
tp7981
Rp7982
ag2
(g6
S'\x10\x05r>'
p7983
tp7984
Rp7985
ag2
(g6
S'\x081t>'
p7986
tp7987
Rp7988
ag2
(g6
S'\x88\xf6v>'
p7989
tp7990
Rp7991
ag2
(g6
S'8\xcc\x80>'
p7992
tp7993
Rp7994
ag2
(g6
S'\xd8\xeas>'
p7995
tp7996
Rp7997
ag2
(g6
S'\xe8\xbb\x8a>'
p7998
tp7999
Rp8000
ag2
(g6
S'\xc8\xe5n>'
p8001
tp8002
Rp8003
ag2
(g6
S'\xd8Qp>'
p8004
tp8005
Rp8006
ag2
(g6
S'\xb8\xb3\x88>'
p8007
tp8008
Rp8009
ag2
(g6
S' \x0f\x8b>'
p8010
tp8011
Rp8012
ag2
(g6
S'\xb8\xecx>'
p8013
tp8014
Rp8015
ag2
(g6
S'h<\x85>'
p8016
tp8017
Rp8018
ag2
(g6
S'\xb8=r>'
p8019
tp8020
Rp8021
ag2
(g6
S'h]h>'
p8022
tp8023
Rp8024
ag2
(g6
S' \xe0~>'
p8025
tp8026
Rp8027
ag2
(g6
S'X\xc9t>'
p8028
tp8029
Rp8030
ag2
(g6
S'\xd8ao>'
p8031
tp8032
Rp8033
ag2
(g6
S'@\xb4z>'
p8034
tp8035
Rp8036
ag2
(g6
S'|\xc9\x85>'
p8037
tp8038
Rp8039
ag2
(g6
S'`\x1ek>'
p8040
tp8041
Rp8042
ag2
(g6
S'\x00;h>'
p8043
tp8044
Rp8045
ag2
(g6
S'\xf0\x1a}>'
p8046
tp8047
Rp8048
ag2
(g6
S'\xd0\xf9l>'
p8049
tp8050
Rp8051
ag2
(g6
S'X\x18{>'
p8052
tp8053
Rp8054
ag2
(g6
S'\x90\x8e\x86>'
p8055
tp8056
Rp8057
ag2
(g6
S'\xd0\x12j>'
p8058
tp8059
Rp8060
ag2
(g6
S'\x08\x9b\x83>'
p8061
tp8062
Rp8063
ag2
(g6
S'H\x1fv>'
p8064
tp8065
Rp8066
ag2
(g6
S'\x18\xea\x7f>'
p8067
tp8068
Rp8069
ag2
(g6
S'\x1c\xdc\x86>'
p8070
tp8071
Rp8072
ag2
(g6
S'\x90V\x85>'
p8073
tp8074
Rp8075
ag2
(g6
S'8\x1bn>'
p8076
tp8077
Rp8078
ag2
(g6
S'\x80S\x83>'
p8079
tp8080
Rp8081
ag2
(g6
S'@}\x8b>'
p8082
tp8083
Rp8084
ag2
(g6
S'\x80\x88u>'
p8085
tp8086
Rp8087
ag2
(g6
S't\x19\x85>'
p8088
tp8089
Rp8090
ag2
(g6
S'()i>'
p8091
tp8092
Rp8093
ag2
(g6
S'\xf48\x80>'
p8094
tp8095
Rp8096
ag2
(g6
S'\x98Zq>'
p8097
tp8098
Rp8099
ag2
(g6
S'\x00h\x81>'
p8100
tp8101
Rp8102
ag2
(g6
S'\xac\x99\x85>'
p8103
tp8104
Rp8105
ag2
(g6
S'\x10\xf6\x8e>'
p8106
tp8107
Rp8108
ag2
(g6
S'\x98\xcc\x95>'
p8109
tp8110
Rp8111
ag2
(g6
S'\x98\x94g>'
p8112
tp8113
Rp8114
ag2
(g6
S'x\x0e\x90>'
p8115
tp8116
Rp8117
ag2
(g6
S'\x00\xf4v>'
p8118
tp8119
Rp8120
ag2
(g6
S'\xa0*r>'
p8121
tp8122
Rp8123
ag2
(g6
S'\xb4?\x80>'
p8124
tp8125
Rp8126
ag2
(g6
S'dg\x85>'
p8127
tp8128
Rp8129
ag2
(g6
S'`\xb2\x8c>'
p8130
tp8131
Rp8132
ag2
(g6
S'\xc8@\x7f>'
p8133
tp8134
Rp8135
ag2
(g6
S'\xc0~e>'
p8136
tp8137
Rp8138
ag2
(g6
S'\x88\x1fk>'
p8139
tp8140
Rp8141
ag2
(g6
S'x\xeb\x80>'
p8142
tp8143
Rp8144
ag2
(g6
S'l\x82\x80>'
p8145
tp8146
Rp8147
ag2
(g6
S'H\xcc\x84>'
p8148
tp8149
Rp8150
ag2
(g6
S'\x90\xd5|>'
p8151
tp8152
Rp8153
ag2
(g6
S' \xaek>'
p8154
tp8155
Rp8156
ag2
(g6
S'`\xefx>'
p8157
tp8158
Rp8159
ag2
(g6
S'p-l>'
p8160
tp8161
Rp8162
ag2
(g6
S'\xc8|\x94>'
p8163
tp8164
Rp8165
ag2
(g6
S'\x98Jm>'
p8166
tp8167
Rp8168
ag2
(g6
S'Xm\x8a>'
p8169
tp8170
Rp8171
ag2
(g6
S'\xbc\x14\x8b>'
p8172
tp8173
Rp8174
ag2
(g6
S'\x8cH\x8b>'
p8175
tp8176
Rp8177
ag2
(g6
S'\xd0\x80q>'
p8178
tp8179
Rp8180
ag2
(g6
S'\x98P\x80>'
p8181
tp8182
Rp8183
ag2
(g6
S'\xd0${>'
p8184
tp8185
Rp8186
ag2
(g6
S'\x94~\x86>'
p8187
tp8188
Rp8189
ag2
(g6
S'\xfc\x07\x87>'
p8190
tp8191
Rp8192
ag2
(g6
S'h(\x84>'
p8193
tp8194
Rp8195
ag2
(g6
S'\x14\x1c\x82>'
p8196
tp8197
Rp8198
ag2
(g6
S'@\\w>'
p8199
tp8200
Rp8201
ag2
(g6
S'\xd8R}>'
p8202
tp8203
Rp8204
ag2
(g6
S'\x00\xa5\x82>'
p8205
tp8206
Rp8207
ag2
(g6
S'@\xa7x>'
p8208
tp8209
Rp8210
ag2
(g6
S'h\xa3\x88>'
p8211
tp8212
Rp8213
ag2
(g6
S'\x00sv>'
p8214
tp8215
Rp8216
ag2
(g6
S'\xc02\x81>'
p8217
tp8218
Rp8219
ag2
(g6
S'\xc8\x9c\x8f>'
p8220
tp8221
Rp8222
ag2
(g6
S'\x94g\x8b>'
p8223
tp8224
Rp8225
ag2
(g6
S'\xb8\xc2s>'
p8226
tp8227
Rp8228
ag2
(g6
S'\xc8\xd6{>'
p8229
tp8230
Rp8231
ag2
(g6
S'x\x17z>'
p8232
tp8233
Rp8234
ag2
(g6
S'\xe8\x18f>'
p8235
tp8236
Rp8237
ag2
(g6
S'` \x81>'
p8238
tp8239
Rp8240
ag2
(g6
S'\xa0\x1dw>'
p8241
tp8242
Rp8243
ag2
(g6
S'\x9c7\x86>'
p8244
tp8245
Rp8246
ag2
(g6
S'@\xb0\x8b>'
p8247
tp8248
Rp8249
ag2
(g6
S'Xcu>'
p8250
tp8251
Rp8252
ag2
(g6
S'\xc4\xff\x8f>'
p8253
tp8254
Rp8255
ag2
(g6
S'\xe0\x95m>'
p8256
tp8257
Rp8258
ag2
(g6
S'\xe0\x99r>'
p8259
tp8260
Rp8261
ag2
(g6
S'\xb4E\x85>'
p8262
tp8263
Rp8264
ag2
(g6
S'H\x0cf>'
p8265
tp8266
Rp8267
ag2
(g6
S'\x08HZ>'
p8268
tp8269
Rp8270
ag2
(g6
S'x\x89\x80>'
p8271
tp8272
Rp8273
ag2
(g6
S'Py\x7f>'
p8274
tp8275
Rp8276
ag2
(g6
S'0\xdff>'
p8277
tp8278
Rp8279
ag2
(g6
S'\x08\x8d|>'
p8280
tp8281
Rp8282
ag2
(g6
S'\x18g\x84>'
p8283
tp8284
Rp8285
ag2
(g6
S'\x8c\xb7\x82>'
p8286
tp8287
Rp8288
ag2
(g6
S'\xf0\xc2\x81>'
p8289
tp8290
Rp8291
ag2
(g6
S'@\x11t>'
p8292
tp8293
Rp8294
ag2
(g6
S'd\x8f\x87>'
p8295
tp8296
Rp8297
ag2
(g6
S'@\x06|>'
p8298
tp8299
Rp8300
ag2
(g6
S'\xac\x1f\x89>'
p8301
tp8302
Rp8303
ag2
(g6
S'\xc0\xfb}>'
p8304
tp8305
Rp8306
ag2
(g6
S'h\x08v>'
p8307
tp8308
Rp8309
ag2
(g6
S'XZr>'
p8310
tp8311
Rp8312
ag2
(g6
S'\x00\x1c|>'
p8313
tp8314
Rp8315
ag2
(g6
S'\x04"\x86>'
p8316
tp8317
Rp8318
ag2
(g6
S'(zx>'
p8319
tp8320
Rp8321
ag2
(g6
S'\x90qn>'
p8322
tp8323
Rp8324
ag2
(g6
S'\xf0\xe4\x88>'
p8325
tp8326
Rp8327
ag2
(g6
S'(1\x84>'
p8328
tp8329
Rp8330
ag2
(g6
S'\xb8\xba|>'
p8331
tp8332
Rp8333
ag2
(g6
S'\x9c\xa9\x8f>'
p8334
tp8335
Rp8336
ag2
(g6
S'\xc8\x90p>'
p8337
tp8338
Rp8339
ag2
(g6
S'\xb0+f>'
p8340
tp8341
Rp8342
ag2
(g6
S' Kz>'
p8343
tp8344
Rp8345
ag2
(g6
S'\x98\x08}>'
p8346
tp8347
Rp8348
ag2
(g6
S'`\xe7|>'
p8349
tp8350
Rp8351
ag2
(g6
S'\x8c\xfe\x86>'
p8352
tp8353
Rp8354
ag2
(g6
S'\x08Jk>'
p8355
tp8356
Rp8357
ag2
(g6
S'\\+\x82>'
p8358
tp8359
Rp8360
ag2
(g6
S'\xa0\xcb\\>'
p8361
tp8362
Rp8363
ag2
(g6
S'L\xca\x83>'
p8364
tp8365
Rp8366
ag2
(g6
S'\xe0\xa5f>'
p8367
tp8368
Rp8369
ag2
(g6
S'0?u>'
p8370
tp8371
Rp8372
ag2
(g6
S'\xa4\xb1\x80>'
p8373
tp8374
Rp8375
ag2
(g6
S'\x90\xdao>'
p8376
tp8377
Rp8378
ag2
(g6
S'\xf08k>'
p8379
tp8380
Rp8381
ag2
(g6
S'X\x06g>'
p8382
tp8383
Rp8384
ag2
(g6
S'h\x83\x84>'
p8385
tp8386
Rp8387
ag2
(g6
S' \xf2t>'
p8388
tp8389
Rp8390
ag2
(g6
S'\x00\x9d\x8d>'
p8391
tp8392
Rp8393
ag2
(g6
S'\xa4`\x85>'
p8394
tp8395
Rp8396
ag2
(g6
S'\x84\xb2\x81>'
p8397
tp8398
Rp8399
ag2
(g6
S'\xc8\x83h>'
p8400
tp8401
Rp8402
ag2
(g6
S'\xe8Bs>'
p8403
tp8404
Rp8405
ag2
(g6
S'\xc0\xecj>'
p8406
tp8407
Rp8408
ag2
(g6
S'`j\x8d>'
p8409
tp8410
Rp8411
ag2
(g6
S'x\xd9q>'
p8412
tp8413
Rp8414
ag2
(g6
S'D.\x8f>'
p8415
tp8416
Rp8417
ag2
(g6
S'\xf8\xfan>'
p8418
tp8419
Rp8420
ag2
(g6
S'Prn>'
p8421
tp8422
Rp8423
ag2
(g6
S'\x98\x8d\x97>'
p8424
tp8425
Rp8426
ag2
(g6
S'\xc8\xcf\x7f>'
p8427
tp8428
Rp8429
ag2
(g6
S'Xx\x7f>'
p8430
tp8431
Rp8432
ag2
(g6
S'X\x94v>'
p8433
tp8434
Rp8435
ag2
(g6
S'\x00!r>'
p8436
tp8437
Rp8438
ag2
(g6
S'x\xd8r>'
p8439
tp8440
Rp8441
ag2
(g6
S'XKr>'
p8442
tp8443
Rp8444
ag2
(g6
S'\xf4\x1f\x8a>'
p8445
tp8446
Rp8447
ag2
(g6
S'\xa0\xd1\x83>'
p8448
tp8449
Rp8450
ag2
(g6
S'(\x95\x83>'
p8451
tp8452
Rp8453
ag2
(g6
S'(4k>'
p8454
tp8455
Rp8456
ag2
(g6
S'\\:\x81>'
p8457
tp8458
Rp8459
ag2
(g6
S'\x18\xb0n>'
p8460
tp8461
Rp8462
ag2
(g6
S'\xcc\x1c\x85>'
p8463
tp8464
Rp8465
ag2
(g6
S'\xb4\x14\x81>'
p8466
tp8467
Rp8468
ag2
(g6
S'(\xcfn>'
p8469
tp8470
Rp8471
ag2
(g6
S'x(\x88>'
p8472
tp8473
Rp8474
ag2
(g6
S'd\xdd\x8a>'
p8475
tp8476
Rp8477
ag2
(g6
S'0\x08{>'
p8478
tp8479
Rp8480
ag2
(g6
S'8\xefn>'
p8481
tp8482
Rp8483
ag2
(g6
S'`\xb6\x88>'
p8484
tp8485
Rp8486
ag2
(g6
S'\x18\xa1\x85>'
p8487
tp8488
Rp8489
ag2
(g6
S'\\l\x8b>'
p8490
tp8491
Rp8492
ag2
(g6
S'\x98\xd0z>'
p8493
tp8494
Rp8495
ag2
(g6
S'\xf8<n>'
p8496
tp8497
Rp8498
ag2
(g6
S'\xb0\x9b~>'
p8499
tp8500
Rp8501
ag2
(g6
S'8\x99k>'
p8502
tp8503
Rp8504
ag2
(g6
S'\xa0\x0cf>'
p8505
tp8506
Rp8507
ag2
(g6
S'`Me>'
p8508
tp8509
Rp8510
ag2
(g6
S'tY\x82>'
p8511
tp8512
Rp8513
ag2
(g6
S'8\x12}>'
p8514
tp8515
Rp8516
ag2
(g6
S'\xe4;\x81>'
p8517
tp8518
Rp8519
ag2
(g6
S'\xac\xd8\x82>'
p8520
tp8521
Rp8522
ag2
(g6
S'\xe0\x9ee>'
p8523
tp8524
Rp8525
ag2
(g6
S'\x10\x84~>'
p8526
tp8527
Rp8528
ag2
(g6
S'\xf8?\x80>'
p8529
tp8530
Rp8531
ag2
(g6
S'd\xe8\x83>'
p8532
tp8533
Rp8534
ag2
(g6
S'\xac\xc8\x8d>'
p8535
tp8536
Rp8537
ag2
(g6
S'<\x10\x8a>'
p8538
tp8539
Rp8540
ag2
(g6
S'\x10\xa7z>'
p8541
tp8542
Rp8543
ag2
(g6
S'\xfc\xd6\x82>'
p8544
tp8545
Rp8546
ag2
(g6
S'\x18\xaek>'
p8547
tp8548
Rp8549
ag2
(g6
S'H\xdbx>'
p8550
tp8551
Rp8552
ag2
(g6
S'8\xb9j>'
p8553
tp8554
Rp8555
ag2
(g6
S'\x0c \x83>'
p8556
tp8557
Rp8558
ag2
(g6
S'x r>'
p8559
tp8560
Rp8561
ag2
(g6
S'\xd0\xbdW>'
p8562
tp8563
Rp8564
ag2
(g6
S'\x18\xac\x80>'
p8565
tp8566
Rp8567
ag2
(g6
S'H\xd2x>'
p8568
tp8569
Rp8570
ag2
(g6
S'\xb8\xeas>'
p8571
tp8572
Rp8573
ag2
(g6
S'\x88\xef\x82>'
p8574
tp8575
Rp8576
ag2
(g6
S'0)z>'
p8577
tp8578
Rp8579
ag2
(g6
S'\x80\x04z>'
p8580
tp8581
Rp8582
ag2
(g6
S'\x08\xe9b>'
p8583
tp8584
Rp8585
ag2
(g6
S'\x80\xdc\x80>'
p8586
tp8587
Rp8588
ag2
(g6
S'\x88\xed\x86>'
p8589
tp8590
Rp8591
ag2
(g6
S'(\x1e\\>'
p8592
tp8593
Rp8594
ag2
(g6
S'@\xc3|>'
p8595
tp8596
Rp8597
ag2
(g6
S'X\xael>'
p8598
tp8599
Rp8600
ag2
(g6
S'p\x1du>'
p8601
tp8602
Rp8603
ag2
(g6
S'\x0cm\x86>'
p8604
tp8605
Rp8606
ag2
(g6
S'h\x1dj>'
p8607
tp8608
Rp8609
ag2
(g6
S'\xd8\x1dp>'
p8610
tp8611
Rp8612
ag2
(g6
S'pR\x8a>'
p8613
tp8614
Rp8615
ag2
(g6
S' \xa5g>'
p8616
tp8617
Rp8618
ag2
(g6
S'L\xbf\x80>'
p8619
tp8620
Rp8621
ag2
(g6
S'\x00\xb2\x82>'
p8622
tp8623
Rp8624
ag2
(g6
S'\xa8\x90v>'
p8625
tp8626
Rp8627
ag2
(g6
S'\x00\x9bx>'
p8628
tp8629
Rp8630
ag2
(g6
S'H\xaav>'
p8631
tp8632
Rp8633
ag2
(g6
S'T\x82\x8d>'
p8634
tp8635
Rp8636
ag2
(g6
S'("x>'
p8637
tp8638
Rp8639
ag2
(g6
S"\xd4'\x85>"
p8640
tp8641
Rp8642
ag2
(g6
S'H;Q>'
p8643
tp8644
Rp8645
ag2
(g6
S'\xb0-g>'
p8646
tp8647
Rp8648
ag2
(g6
S'\xa0\tr>'
p8649
tp8650
Rp8651
ag2
(g6
S'\x80ru>'
p8652
tp8653
Rp8654
ag2
(g6
S'\xb0\xc9\x81>'
p8655
tp8656
Rp8657
ag2
(g6
S'\x901a>'
p8658
tp8659
Rp8660
ag2
(g6
S'\x18*`>'
p8661
tp8662
Rp8663
ag2
(g6
S'\x90bg>'
p8664
tp8665
Rp8666
ag2
(g6
S'\x14\x08\x81>'
p8667
tp8668
Rp8669
ag2
(g6
S'\x10\x8fz>'
p8670
tp8671
Rp8672
ag2
(g6
S'0\xbbk>'
p8673
tp8674
Rp8675
ag2
(g6
S'\x08\xd2x>'
p8676
tp8677
Rp8678
ag2
(g6
S'h\x87z>'
p8679
tp8680
Rp8681
ag2
(g6
S'0\xe3\x81>'
p8682
tp8683
Rp8684
ag2
(g6
S'\xc4\xf1\x80>'
p8685
tp8686
Rp8687
ag2
(g6
S'\xf8\xe7i>'
p8688
tp8689
Rp8690
ag2
(g6
S'\x00\xa8l>'
p8691
tp8692
Rp8693
ag2
(g6
S'\x90\x17b>'
p8694
tp8695
Rp8696
ag2
(g6
S'\xa8\xfaz>'
p8697
tp8698
Rp8699
ag2
(g6
S'\x08\xb1|>'
p8700
tp8701
Rp8702
ag2
(g6
S'\xd8`}>'
p8703
tp8704
Rp8705
ag2
(g6
S'X\x93P>'
p8706
tp8707
Rp8708
ag2
(g6
S'\x88\xf5~>'
p8709
tp8710
Rp8711
ag2
(g6
S'\x98\x10l>'
p8712
tp8713
Rp8714
ag2
(g6
S'\x94\xe2\x98>'
p8715
tp8716
Rp8717
ag2
(g6
S'h\x08r>'
p8718
tp8719
Rp8720
ag2
(g6
S'\\3\x83>'
p8721
tp8722
Rp8723
ag2
(g6
S'\xb8\xb7\x85>'
p8724
tp8725
Rp8726
ag2
(g6
S'\xd8\xd9w>'
p8727
tp8728
Rp8729
ag2
(g6
S'@\x1cy>'
p8730
tp8731
Rp8732
ag2
(g6
S'p\x07\x96>'
p8733
tp8734
Rp8735
ag2
(g6
S'\xc4a\x84>'
p8736
tp8737
Rp8738
ag2
(g6
S'\x0cY\x8c>'
p8739
tp8740
Rp8741
ag2
(g6
S'\x0c\xee\x84>'
p8742
tp8743
Rp8744
ag2
(g6
S'(\xa6\x88>'
p8745
tp8746
Rp8747
ag2
(g6
S'\xd0Vv>'
p8748
tp8749
Rp8750
ag2
(g6
S'\x08\xb0\x82>'
p8751
tp8752
Rp8753
ag2
(g6
S'\xb8\xf3p>'
p8754
tp8755
Rp8756
ag2
(g6
S'\x10\xdep>'
p8757
tp8758
Rp8759
ag2
(g6
S'\x1c\x11\x8d>'
p8760
tp8761
Rp8762
ag2
(g6
S'\xb0\xcb\x84>'
p8763
tp8764
Rp8765
ag2
(g6
S'Htt>'
p8766
tp8767
Rp8768
ag2
(g6
S'8\xa7\x81>'
p8769
tp8770
Rp8771
ag2
(g6
S' \xdb`>'
p8772
tp8773
Rp8774
ag2
(g6
S'\x90\x88l>'
p8775
tp8776
Rp8777
ag2
(g6
S'\xc8$j>'
p8778
tp8779
Rp8780
ag2
(g6
S'@\xec\x89>'
p8781
tp8782
Rp8783
ag2
(g6
S'\xb0ks>'
p8784
tp8785
Rp8786
ag2
(g6
S'`\xa8j>'
p8787
tp8788
Rp8789
ag2
(g6
S'L\xfc\x87>'
p8790
tp8791
Rp8792
ag2
(g6
S'\x08\xd5l>'
p8793
tp8794
Rp8795
ag2
(g6
S'({\x81>'
p8796
tp8797
Rp8798
ag2
(g6
S'\xb8*\x85>'
p8799
tp8800
Rp8801
ag2
(g6
S'x\xe6z>'
p8802
tp8803
Rp8804
ag2
(g6
S'\xd4\xf6\x82>'
p8805
tp8806
Rp8807
ag2
(g6
S'\xc0\xefr>'
p8808
tp8809
Rp8810
ag2
(g6
S'HJs>'
p8811
tp8812
Rp8813
ag2
(g6
S'\x90\xb1w>'
p8814
tp8815
Rp8816
ag2
(g6
S'\x08\x8dh>'
p8817
tp8818
Rp8819
ag2
(g6
S'\x98\x99|>'
p8820
tp8821
Rp8822
ag2
(g6
S'\xc04~>'
p8823
tp8824
Rp8825
ag2
(g6
S'\xc8\x1d\x80>'
p8826
tp8827
Rp8828
ag2
(g6
S'\xf4\xd8\x82>'
p8829
tp8830
Rp8831
ag2
(g6
S'\xe81m>'
p8832
tp8833
Rp8834
ag2
(g6
S'x*\x82>'
p8835
tp8836
Rp8837
ag2
(g6
S'\xf0K\x87>'
p8838
tp8839
Rp8840
ag2
(g6
S'X\xce\x85>'
p8841
tp8842
Rp8843
ag2
(g6
S'\x80\x8a\x88>'
p8844
tp8845
Rp8846
ag2
(g6
S'\xe0Wn>'
p8847
tp8848
Rp8849
ag2
(g6
S'\xa8xz>'
p8850
tp8851
Rp8852
ag2
(g6
S'P\x9f{>'
p8853
tp8854
Rp8855
ag2
(g6
S'\xa4\xa1\x80>'
p8856
tp8857
Rp8858
ag2
(g6
S'h\xe5\x8a>'
p8859
tp8860
Rp8861
ag2
(g6
S'\xd8\x04\x83>'
p8862
tp8863
Rp8864
ag2
(g6
S'\x00\xccw>'
p8865
tp8866
Rp8867
ag2
(g6
S'\xf0\xd8o>'
p8868
tp8869
Rp8870
ag2
(g6
S'\xa8\xbds>'
p8871
tp8872
Rp8873
ag2
(g6
S'\xf0u\x8a>'
p8874
tp8875
Rp8876
ag2
(g6
S' \xedu>'
p8877
tp8878
Rp8879
ag2
(g6
S'pPz>'
p8880
tp8881
Rp8882
ag2
(g6
S'\xe0\xd3v>'
p8883
tp8884
Rp8885
ag2
(g6
S'(N\x87>'
p8886
tp8887
Rp8888
ag2
(g6
S'\xbc\xce\x84>'
p8889
tp8890
Rp8891
ag2
(g6
S'\x84/\x86>'
p8892
tp8893
Rp8894
ag2
(g6
S'p\x01v>'
p8895
tp8896
Rp8897
ag2
(g6
S'\x98\t|>'
p8898
tp8899
Rp8900
ag2
(g6
S'`\xfcq>'
p8901
tp8902
Rp8903
ag2
(g6
S',\xef\x8c>'
p8904
tp8905
Rp8906
ag2
(g6
S'\xa8\xd9r>'
p8907
tp8908
Rp8909
ag2
(g6
S'x\x16w>'
p8910
tp8911
Rp8912
ag2
(g6
S'\x98\xf6o>'
p8913
tp8914
Rp8915
ag2
(g6
S'\x94S\x94>'
p8916
tp8917
Rp8918
ag2
(g6
S'l\x14\x8c>'
p8919
tp8920
Rp8921
ag2
(g6
S'8\xd4\x7f>'
p8922
tp8923
Rp8924
ag2
(g6
S'8\xab~>'
p8925
tp8926
Rp8927
ag2
(g6
S'\xc8\x1bq>'
p8928
tp8929
Rp8930
ag2
(g6
S', \x84>'
p8931
tp8932
Rp8933
ag2
(g6
S'\xe8\xd2n>'
p8934
tp8935
Rp8936
ag2
(g6
S'\xf8E\x87>'
p8937
tp8938
Rp8939
ag2
(g6
S'x\x0bv>'
p8940
tp8941
Rp8942
ag2
(g6
S'\xe8\x99\x86>'
p8943
tp8944
Rp8945
ag2
(g6
S'\x90C\x80>'
p8946
tp8947
Rp8948
ag2
(g6
S'\x80\x9cl>'
p8949
tp8950
Rp8951
ag2
(g6
S'\xccy\x8d>'
p8952
tp8953
Rp8954
ag2
(g6
S'h\xb2\x80>'
p8955
tp8956
Rp8957
ag2
(g6
S'\xf4\xe1\x8c>'
p8958
tp8959
Rp8960
ag2
(g6
S'\xa8q\x81>'
p8961
tp8962
Rp8963
ag2
(g6
S'\xb0\x07T>'
p8964
tp8965
Rp8966
ag2
(g6
S'\xb08\x83>'
p8967
tp8968
Rp8969
ag2
(g6
S'\x88\xe7|>'
p8970
tp8971
Rp8972
ag2
(g6
S'\xe89}>'
p8973
tp8974
Rp8975
ag2
(g6
S'(]\x8c>'
p8976
tp8977
Rp8978
ag2
(g6
S'\xf0\xffs>'
p8979
tp8980
Rp8981
ag2
(g6
S'\x80+\x86>'
p8982
tp8983
Rp8984
ag2
(g6
S'<$\x95>'
p8985
tp8986
Rp8987
ag2
(g6
S'\x14\x1e\x8e>'
p8988
tp8989
Rp8990
ag2
(g6
S'\x0c/\x80>'
p8991
tp8992
Rp8993
ag2
(g6
S'\x88Wj>'
p8994
tp8995
Rp8996
ag2
(g6
S'\xcc[\x85>'
p8997
tp8998
Rp8999
ag2
(g6
S'\x10W\x80>'
p9000
tp9001
Rp9002
ag2
(g6
S'pf\x89>'
p9003
tp9004
Rp9005
ag2
(g6
S'\xe8\xdf|>'
p9006
tp9007
Rp9008
ag2
(g6
S'8Xm>'
p9009
tp9010
Rp9011
aa(lp9012
(lp9013
a(lp9014
a(lp9015
a(lp9016
a(lp9017
a(lp9018
a(lp9019
a(lp9020
a(lp9021
a(lp9022
a(lp9023
a(lp9024
a(lp9025
a(lp9026
a(lp9027
a(lp9028
a(lp9029
a(lp9030
a(lp9031
a(lp9032
a(lp9033
a(lp9034
a(lp9035
a(lp9036
a(lp9037
a(lp9038
a(lp9039
a(lp9040
a(lp9041
a(lp9042
a(lp9043
a(lp9044
a(lp9045
a(lp9046
a(lp9047
a(lp9048
a(lp9049
a(lp9050
a(lp9051
a(lp9052
a(lp9053
a(lp9054
a(lp9055
a(lp9056
a(lp9057
a(lp9058
a(lp9059
a(lp9060
a(lp9061
a(lp9062
a(lp9063
a(lp9064
a(lp9065
a(lp9066
a(lp9067
a(lp9068
a(lp9069
a(lp9070
a(lp9071
a(lp9072
a(lp9073
a(lp9074
a(lp9075
a(lp9076
a(lp9077
a(lp9078
a(lp9079
a(lp9080
a(lp9081
a(lp9082
a(lp9083
a(lp9084
a(lp9085
a(lp9086
a(lp9087
a(lp9088
a(lp9089
a(lp9090
a(lp9091
a(lp9092
a(lp9093
a(lp9094
a(lp9095
a(lp9096
a(lp9097
a(lp9098
a(lp9099
a(lp9100
a(lp9101
a(lp9102
a(lp9103
a(lp9104
a(lp9105
a(lp9106
a(lp9107
a(lp9108
a(lp9109
a(lp9110
a(lp9111
a(lp9112
a(lp9113
a(lp9114
a(lp9115
a(lp9116
a(lp9117
a(lp9118
a(lp9119
a(lp9120
a(lp9121
a(lp9122
a(lp9123
a(lp9124
a(lp9125
a(lp9126
a(lp9127
a(lp9128
a(lp9129
a(lp9130
a(lp9131
a(lp9132
a(lp9133
a(lp9134
a(lp9135
a(lp9136
a(lp9137
a(lp9138
a(lp9139
a(lp9140
a(lp9141
a(lp9142
a(lp9143
a(lp9144
a(lp9145
a(lp9146
a(lp9147
a(lp9148
a(lp9149
a(lp9150
a(lp9151
a(lp9152
a(lp9153
a(lp9154
a(lp9155
a(lp9156
a(lp9157
a(lp9158
a(lp9159
a(lp9160
a(lp9161
a(lp9162
a(lp9163
a(lp9164
a(lp9165
a(lp9166
a(lp9167
a(lp9168
a(lp9169
a(lp9170
a(lp9171
a(lp9172
a(lp9173
a(lp9174
a(lp9175
a(lp9176
a(lp9177
a(lp9178
a(lp9179
a(lp9180
a(lp9181
a(lp9182
a(lp9183
a(lp9184
a(lp9185
a(lp9186
a(lp9187
a(lp9188
a(lp9189
a(lp9190
a(lp9191
a(lp9192
a(lp9193
a(lp9194
a(lp9195
a(lp9196
a(lp9197
a(lp9198
a(lp9199
a(lp9200
a(lp9201
a(lp9202
a(lp9203
a(lp9204
a(lp9205
a(lp9206
a(lp9207
a(lp9208
a(lp9209
a(lp9210
a(lp9211
a(lp9212
a(lp9213
a(lp9214
a(lp9215
a(lp9216
a(lp9217
a(lp9218
a(lp9219
a(lp9220
a(lp9221
a(lp9222
a(lp9223
a(lp9224
a(lp9225
a(lp9226
a(lp9227
a(lp9228
a(lp9229
a(lp9230
a(lp9231
a(lp9232
a(lp9233
a(lp9234
a(lp9235
a(lp9236
a(lp9237
a(lp9238
a(lp9239
a(lp9240
a(lp9241
a(lp9242
a(lp9243
a(lp9244
a(lp9245
a(lp9246
a(lp9247
a(lp9248
a(lp9249
a(lp9250
a(lp9251
a(lp9252
a(lp9253
a(lp9254
a(lp9255
a(lp9256
a(lp9257
a(lp9258
a(lp9259
a(lp9260
a(lp9261
a(lp9262
a(lp9263
a(lp9264
a(lp9265
a(lp9266
a(lp9267
a(lp9268
a(lp9269
a(lp9270
a(lp9271
a(lp9272
a(lp9273
a(lp9274
a(lp9275
a(lp9276
a(lp9277
a(lp9278
a(lp9279
a(lp9280
a(lp9281
a(lp9282
a(lp9283
a(lp9284
a(lp9285
a(lp9286
a(lp9287
a(lp9288
a(lp9289
a(lp9290
a(lp9291
a(lp9292
a(lp9293
a(lp9294
a(lp9295
a(lp9296
a(lp9297
a(lp9298
a(lp9299
a(lp9300
a(lp9301
a(lp9302
a(lp9303
a(lp9304
a(lp9305
a(lp9306
a(lp9307
a(lp9308
a(lp9309
a(lp9310
a(lp9311
a(lp9312
a(lp9313
a(lp9314
a(lp9315
a(lp9316
a(lp9317
a(lp9318
a(lp9319
a(lp9320
a(lp9321
a(lp9322
a(lp9323
a(lp9324
a(lp9325
a(lp9326
a(lp9327
a(lp9328
a(lp9329
a(lp9330
a(lp9331
a(lp9332
a(lp9333
a(lp9334
a(lp9335
a(lp9336
a(lp9337
a(lp9338
a(lp9339
a(lp9340
a(lp9341
a(lp9342
a(lp9343
a(lp9344
a(lp9345
a(lp9346
a(lp9347
a(lp9348
a(lp9349
a(lp9350
a(lp9351
a(lp9352
a(lp9353
a(lp9354
a(lp9355
a(lp9356
a(lp9357
a(lp9358
a(lp9359
a(lp9360
a(lp9361
a(lp9362
a(lp9363
a(lp9364
a(lp9365
a(lp9366
a(lp9367
a(lp9368
a(lp9369
a(lp9370
a(lp9371
a(lp9372
a(lp9373
a(lp9374
a(lp9375
a(lp9376
a(lp9377
a(lp9378
a(lp9379
a(lp9380
a(lp9381
a(lp9382
a(lp9383
a(lp9384
a(lp9385
a(lp9386
a(lp9387
a(lp9388
a(lp9389
a(lp9390
a(lp9391
a(lp9392
a(lp9393
a(lp9394
a(lp9395
a(lp9396
a(lp9397
a(lp9398
a(lp9399
a(lp9400
a(lp9401
a(lp9402
a(lp9403
a(lp9404
a(lp9405
a(lp9406
a(lp9407
a(lp9408
a(lp9409
a(lp9410
a(lp9411
a(lp9412
a(lp9413
a(lp9414
a(lp9415
a(lp9416
a(lp9417
a(lp9418
a(lp9419
a(lp9420
a(lp9421
a(lp9422
a(lp9423
a(lp9424
a(lp9425
a(lp9426
a(lp9427
a(lp9428
a(lp9429
a(lp9430
a(lp9431
a(lp9432
a(lp9433
a(lp9434
a(lp9435
a(lp9436
a(lp9437
a(lp9438
a(lp9439
a(lp9440
a(lp9441
a(lp9442
a(lp9443
a(lp9444
a(lp9445
a(lp9446
a(lp9447
a(lp9448
a(lp9449
a(lp9450
a(lp9451
a(lp9452
a(lp9453
a(lp9454
a(lp9455
a(lp9456
a(lp9457
a(lp9458
a(lp9459
a(lp9460
a(lp9461
a(lp9462
a(lp9463
a(lp9464
a(lp9465
a(lp9466
a(lp9467
a(lp9468
a(lp9469
a(lp9470
a(lp9471
a(lp9472
a(lp9473
a(lp9474
a(lp9475
a(lp9476
a(lp9477
a(lp9478
a(lp9479
a(lp9480
a(lp9481
a(lp9482
a(lp9483
a(lp9484
a(lp9485
a(lp9486
a(lp9487
a(lp9488
a(lp9489
a(lp9490
a(lp9491
a(lp9492
a(lp9493
a(lp9494
a(lp9495
a(lp9496
a(lp9497
a(lp9498
a(lp9499
a(lp9500
a(lp9501
a(lp9502
a(lp9503
a(lp9504
a(lp9505
a(lp9506
a(lp9507
a(lp9508
a(lp9509
a(lp9510
a(lp9511
a(lp9512
a(lp9513
a(lp9514
a(lp9515
a(lp9516
a(lp9517
a(lp9518
a(lp9519
a(lp9520
a(lp9521
a(lp9522
a(lp9523
a(lp9524
a(lp9525
a(lp9526
a(lp9527
a(lp9528
a(lp9529
a(lp9530
a(lp9531
a(lp9532
a(lp9533
a(lp9534
a(lp9535
a(lp9536
a(lp9537
a(lp9538
a(lp9539
a(lp9540
a(lp9541
a(lp9542
a(lp9543
a(lp9544
a(lp9545
a(lp9546
a(lp9547
a(lp9548
a(lp9549
a(lp9550
a(lp9551
a(lp9552
a(lp9553
a(lp9554
a(lp9555
a(lp9556
a(lp9557
a(lp9558
a(lp9559
a(lp9560
a(lp9561
a(lp9562
a(lp9563
a(lp9564
a(lp9565
a(lp9566
a(lp9567
a(lp9568
a(lp9569
a(lp9570
a(lp9571
a(lp9572
a(lp9573
a(lp9574
a(lp9575
a(lp9576
a(lp9577
a(lp9578
a(lp9579
a(lp9580
a(lp9581
a(lp9582
a(lp9583
a(lp9584
a(lp9585
a(lp9586
a(lp9587
a(lp9588
a(lp9589
a(lp9590
a(lp9591
a(lp9592
a(lp9593
a(lp9594
a(lp9595
a(lp9596
a(lp9597
a(lp9598
a(lp9599
a(lp9600
a(lp9601
a(lp9602
a(lp9603
a(lp9604
a(lp9605
a(lp9606
a(lp9607
a(lp9608
a(lp9609
a(lp9610
a(lp9611
a(lp9612
a(lp9613
a(lp9614
a(lp9615
a(lp9616
a(lp9617
a(lp9618
a(lp9619
a(lp9620
a(lp9621
a(lp9622
a(lp9623
a(lp9624
a(lp9625
a(lp9626
a(lp9627
a(lp9628
a(lp9629
a(lp9630
a(lp9631
a(lp9632
a(lp9633
a(lp9634
a(lp9635
a(lp9636
a(lp9637
a(lp9638
a(lp9639
a(lp9640
a(lp9641
a(lp9642
a(lp9643
a(lp9644
a(lp9645
a(lp9646
a(lp9647
a(lp9648
a(lp9649
a(lp9650
a(lp9651
a(lp9652
a(lp9653
a(lp9654
a(lp9655
a(lp9656
a(lp9657
a(lp9658
a(lp9659
a(lp9660
a(lp9661
a(lp9662
a(lp9663
a(lp9664
a(lp9665
a(lp9666
a(lp9667
a(lp9668
a(lp9669
a(lp9670
a(lp9671
a(lp9672
a(lp9673
a(lp9674
a(lp9675
a(lp9676
a(lp9677
a(lp9678
a(lp9679
a(lp9680
a(lp9681
a(lp9682
a(lp9683
a(lp9684
a(lp9685
a(lp9686
a(lp9687
a(lp9688
a(lp9689
a(lp9690
a(lp9691
a(lp9692
a(lp9693
a(lp9694
a(lp9695
a(lp9696
a(lp9697
a(lp9698
a(lp9699
a(lp9700
a(lp9701
a(lp9702
a(lp9703
a(lp9704
a(lp9705
a(lp9706
a(lp9707
a(lp9708
a(lp9709
a(lp9710
a(lp9711
a(lp9712
a(lp9713
a(lp9714
a(lp9715
a(lp9716
a(lp9717
a(lp9718
a(lp9719
a(lp9720
a(lp9721
a(lp9722
a(lp9723
a(lp9724
a(lp9725
a(lp9726
a(lp9727
a(lp9728
a(lp9729
a(lp9730
a(lp9731
a(lp9732
a(lp9733
a(lp9734
a(lp9735
a(lp9736
a(lp9737
a(lp9738
a(lp9739
a(lp9740
a(lp9741
a(lp9742
a(lp9743
a(lp9744
a(lp9745
a(lp9746
a(lp9747
a(lp9748
a(lp9749
a(lp9750
a(lp9751
a(lp9752
a(lp9753
a(lp9754
a(lp9755
a(lp9756
a(lp9757
a(lp9758
a(lp9759
a(lp9760
a(lp9761
a(lp9762
a(lp9763
a(lp9764
a(lp9765
a(lp9766
a(lp9767
a(lp9768
a(lp9769
a(lp9770
a(lp9771
a(lp9772
a(lp9773
a(lp9774
a(lp9775
a(lp9776
a(lp9777
a(lp9778
a(lp9779
a(lp9780
a(lp9781
a(lp9782
a(lp9783
a(lp9784
a(lp9785
a(lp9786
a(lp9787
a(lp9788
a(lp9789
a(lp9790
a(lp9791
a(lp9792
a(lp9793
a(lp9794
a(lp9795
a(lp9796
a(lp9797
a(lp9798
a(lp9799
a(lp9800
a(lp9801
a(lp9802
a(lp9803
a(lp9804
a(lp9805
a(lp9806
a(lp9807
a(lp9808
a(lp9809
a(lp9810
a(lp9811
a(lp9812
a(lp9813
a(lp9814
a(lp9815
a(lp9816
a(lp9817
a(lp9818
a(lp9819
a(lp9820
a(lp9821
a(lp9822
a(lp9823
a(lp9824
a(lp9825
a(lp9826
a(lp9827
a(lp9828
a(lp9829
a(lp9830
a(lp9831
a(lp9832
a(lp9833
a(lp9834
a(lp9835
a(lp9836
a(lp9837
a(lp9838
a(lp9839
a(lp9840
a(lp9841
a(lp9842
a(lp9843
a(lp9844
a(lp9845
a(lp9846
a(lp9847
a(lp9848
a(lp9849
a(lp9850
a(lp9851
a(lp9852
a(lp9853
a(lp9854
a(lp9855
a(lp9856
a(lp9857
a(lp9858
a(lp9859
a(lp9860
a(lp9861
a(lp9862
a(lp9863
a(lp9864
a(lp9865
a(lp9866
a(lp9867
a(lp9868
a(lp9869
a(lp9870
a(lp9871
a(lp9872
a(lp9873
a(lp9874
a(lp9875
a(lp9876
a(lp9877
a(lp9878
a(lp9879
a(lp9880
a(lp9881
a(lp9882
a(lp9883
a(lp9884
a(lp9885
a(lp9886
a(lp9887
a(lp9888
a(lp9889
a(lp9890
a(lp9891
a(lp9892
a(lp9893
a(lp9894
a(lp9895
a(lp9896
a(lp9897
a(lp9898
a(lp9899
a(lp9900
a(lp9901
a(lp9902
a(lp9903
a(lp9904
a(lp9905
a(lp9906
a(lp9907
a(lp9908
a(lp9909
a(lp9910
a(lp9911
a(lp9912
a(lp9913
a(lp9914
a(lp9915
a(lp9916
a(lp9917
a(lp9918
a(lp9919
a(lp9920
a(lp9921
a(lp9922
a(lp9923
a(lp9924
a(lp9925
a(lp9926
a(lp9927
a(lp9928
a(lp9929
a(lp9930
a(lp9931
a(lp9932
a(lp9933
a(lp9934
a(lp9935
a(lp9936
a(lp9937
a(lp9938
a(lp9939
a(lp9940
a(lp9941
a(lp9942
a(lp9943
a(lp9944
a(lp9945
a(lp9946
a(lp9947
a(lp9948
a(lp9949
a(lp9950
a(lp9951
a(lp9952
a(lp9953
a(lp9954
a(lp9955
a(lp9956
a(lp9957
a(lp9958
a(lp9959
a(lp9960
a(lp9961
a(lp9962
a(lp9963
a(lp9964
a(lp9965
a(lp9966
a(lp9967
a(lp9968
a(lp9969
a(lp9970
a(lp9971
a(lp9972
a(lp9973
a(lp9974
a(lp9975
a(lp9976
a(lp9977
a(lp9978
a(lp9979
a(lp9980
a(lp9981
a(lp9982
a(lp9983
a(lp9984
a(lp9985
a(lp9986
a(lp9987
a(lp9988
a(lp9989
a(lp9990
a(lp9991
a(lp9992
a(lp9993
a(lp9994
a(lp9995
a(lp9996
a(lp9997
a(lp9998
a(lp9999
a(lp10000
a(lp10001
a(lp10002
a(lp10003
a(lp10004
a(lp10005
a(lp10006
a(lp10007
a(lp10008
a(lp10009
a(lp10010
a(lp10011
a(lp10012
a(lp10013
a(lp10014
a(lp10015
a(lp10016
a(lp10017
a(lp10018
a(lp10019
a(lp10020
a(lp10021
a(lp10022
a(lp10023
a(lp10024
a(lp10025
a(lp10026
a(lp10027
a(lp10028
a(lp10029
a(lp10030
a(lp10031
a(lp10032
a(lp10033
a(lp10034
a(lp10035
a(lp10036
a(lp10037
a(lp10038
a(lp10039
a(lp10040
a(lp10041
a(lp10042
a(lp10043
a(lp10044
a(lp10045
a(lp10046
a(lp10047
a(lp10048
a(lp10049
a(lp10050
a(lp10051
a(lp10052
a(lp10053
a(lp10054
a(lp10055
a(lp10056
a(lp10057
a(lp10058
a(lp10059
a(lp10060
a(lp10061
a(lp10062
a(lp10063
a(lp10064
a(lp10065
a(lp10066
a(lp10067
a(lp10068
a(lp10069
a(lp10070
a(lp10071
a(lp10072
a(lp10073
a(lp10074
a(lp10075
a(lp10076
a(lp10077
a(lp10078
a(lp10079
a(lp10080
a(lp10081
a(lp10082
a(lp10083
a(lp10084
a(lp10085
a(lp10086
a(lp10087
a(lp10088
a(lp10089
a(lp10090
a(lp10091
a(lp10092
a(lp10093
a(lp10094
a(lp10095
a(lp10096
a(lp10097
a(lp10098
a(lp10099
a(lp10100
a(lp10101
a(lp10102
a(lp10103
a(lp10104
a(lp10105
a(lp10106
a(lp10107
a(lp10108
a(lp10109
a(lp10110
a(lp10111
a(lp10112
a(lp10113
a(lp10114
a(lp10115
a(lp10116
a(lp10117
a(lp10118
a(lp10119
a(lp10120
a(lp10121
a(lp10122
a(lp10123
a(lp10124
a(lp10125
a(lp10126
a(lp10127
a(lp10128
a(lp10129
a(lp10130
a(lp10131
a(lp10132
a(lp10133
a(lp10134
a(lp10135
a(lp10136
a(lp10137
a(lp10138
a(lp10139
a(lp10140
a(lp10141
a(lp10142
a(lp10143
a(lp10144
a(lp10145
a(lp10146
a(lp10147
a(lp10148
a(lp10149
a(lp10150
a(lp10151
a(lp10152
a(lp10153
a(lp10154
a(lp10155
a(lp10156
a(lp10157
a(lp10158
a(lp10159
a(lp10160
a(lp10161
a(lp10162
a(lp10163
a(lp10164
a(lp10165
a(lp10166
a(lp10167
a(lp10168
a(lp10169
a(lp10170
a(lp10171
a(lp10172
a(lp10173
a(lp10174
a(lp10175
a(lp10176
a(lp10177
a(lp10178
a(lp10179
a(lp10180
a(lp10181
a(lp10182
a(lp10183
a(lp10184
a(lp10185
a(lp10186
a(lp10187
a(lp10188
a(lp10189
a(lp10190
a(lp10191
a(lp10192
a(lp10193
a(lp10194
a(lp10195
a(lp10196
a(lp10197
a(lp10198
a(lp10199
a(lp10200
a(lp10201
a(lp10202
a(lp10203
a(lp10204
a(lp10205
a(lp10206
a(lp10207
a(lp10208
a(lp10209
a(lp10210
a(lp10211
a(lp10212
a(lp10213
a(lp10214
a(lp10215
a(lp10216
a(lp10217
a(lp10218
a(lp10219
a(lp10220
a(lp10221
a(lp10222
a(lp10223
a(lp10224
a(lp10225
a(lp10226
a(lp10227
a(lp10228
a(lp10229
a(lp10230
a(lp10231
a(lp10232
a(lp10233
a(lp10234
a(lp10235
a(lp10236
a(lp10237
a(lp10238
a(lp10239
a(lp10240
a(lp10241
a(lp10242
a(lp10243
a(lp10244
a(lp10245
a(lp10246
a(lp10247
a(lp10248
a(lp10249
a(lp10250
a(lp10251
a(lp10252
a(lp10253
a(lp10254
a(lp10255
a(lp10256
a(lp10257
a(lp10258
a(lp10259
a(lp10260
a(lp10261
a(lp10262
a(lp10263
a(lp10264
a(lp10265
a(lp10266
a(lp10267
a(lp10268
a(lp10269
a(lp10270
a(lp10271
a(lp10272
a(lp10273
a(lp10274
a(lp10275
a(lp10276
a(lp10277
a(lp10278
a(lp10279
a(lp10280
a(lp10281
a(lp10282
a(lp10283
a(lp10284
a(lp10285
a(lp10286
a(lp10287
a(lp10288
a(lp10289
a(lp10290
a(lp10291
a(lp10292
a(lp10293
a(lp10294
a(lp10295
a(lp10296
a(lp10297
a(lp10298
a(lp10299
a(lp10300
a(lp10301
a(lp10302
a(lp10303
a(lp10304
a(lp10305
a(lp10306
a(lp10307
a(lp10308
a(lp10309
a(lp10310
a(lp10311
a(lp10312
a(lp10313
a(lp10314
a(lp10315
a(lp10316
a(lp10317
a(lp10318
a(lp10319
a(lp10320
a(lp10321
a(lp10322
a(lp10323
a(lp10324
a(lp10325
a(lp10326
a(lp10327
a(lp10328
a(lp10329
a(lp10330
a(lp10331
a(lp10332
a(lp10333
a(lp10334
a(lp10335
a(lp10336
a(lp10337
a(lp10338
a(lp10339
a(lp10340
a(lp10341
a(lp10342
a(lp10343
a(lp10344
a(lp10345
a(lp10346
a(lp10347
a(lp10348
a(lp10349
a(lp10350
a(lp10351
a(lp10352
a(lp10353
a(lp10354
a(lp10355
a(lp10356
a(lp10357
a(lp10358
a(lp10359
a(lp10360
a(lp10361
a(lp10362
a(lp10363
a(lp10364
a(lp10365
a(lp10366
a(lp10367
a(lp10368
a(lp10369
a(lp10370
a(lp10371
a(lp10372
a(lp10373
a(lp10374
a(lp10375
a(lp10376
a(lp10377
a(lp10378
a(lp10379
a(lp10380
a(lp10381
a(lp10382
a(lp10383
a(lp10384
a(lp10385
a(lp10386
a(lp10387
a(lp10388
a(lp10389
a(lp10390
a(lp10391
a(lp10392
a(lp10393
a(lp10394
a(lp10395
a(lp10396
a(lp10397
a(lp10398
a(lp10399
a(lp10400
a(lp10401
a(lp10402
a(lp10403
a(lp10404
a(lp10405
a(lp10406
a(lp10407
a(lp10408
a(lp10409
a(lp10410
a(lp10411
a(lp10412
a(lp10413
a(lp10414
a(lp10415
a(lp10416
a(lp10417
a(lp10418
a(lp10419
a(lp10420
a(lp10421
a(lp10422
a(lp10423
a(lp10424
a(lp10425
a(lp10426
a(lp10427
a(lp10428
a(lp10429
a(lp10430
a(lp10431
a(lp10432
a(lp10433
a(lp10434
a(lp10435
a(lp10436
a(lp10437
a(lp10438
a(lp10439
a(lp10440
a(lp10441
a(lp10442
a(lp10443
a(lp10444
a(lp10445
a(lp10446
a(lp10447
a(lp10448
a(lp10449
a(lp10450
a(lp10451
a(lp10452
a(lp10453
a(lp10454
a(lp10455
a(lp10456
a(lp10457
a(lp10458
a(lp10459
a(lp10460
a(lp10461
a(lp10462
a(lp10463
a(lp10464
a(lp10465
a(lp10466
a(lp10467
a(lp10468
a(lp10469
a(lp10470
a(lp10471
a(lp10472
a(lp10473
a(lp10474
a(lp10475
a(lp10476
a(lp10477
a(lp10478
a(lp10479
a(lp10480
a(lp10481
a(lp10482
a(lp10483
a(lp10484
a(lp10485
a(lp10486
a(lp10487
a(lp10488
a(lp10489
a(lp10490
a(lp10491
a(lp10492
a(lp10493
a(lp10494
a(lp10495
a(lp10496
a(lp10497
a(lp10498
a(lp10499
a(lp10500
a(lp10501
a(lp10502
a(lp10503
a(lp10504
a(lp10505
a(lp10506
a(lp10507
a(lp10508
a(lp10509
a(lp10510
a(lp10511
a(lp10512
a(lp10513
a(lp10514
a(lp10515
a(lp10516
a(lp10517
a(lp10518
a(lp10519
a(lp10520
a(lp10521
a(lp10522
a(lp10523
a(lp10524
a(lp10525
a(lp10526
a(lp10527
a(lp10528
a(lp10529
a(lp10530
a(lp10531
a(lp10532
a(lp10533
a(lp10534
a(lp10535
a(lp10536
a(lp10537
a(lp10538
a(lp10539
a(lp10540
a(lp10541
a(lp10542
a(lp10543
a(lp10544
a(lp10545
a(lp10546
a(lp10547
a(lp10548
a(lp10549
a(lp10550
a(lp10551
a(lp10552
a(lp10553
a(lp10554
a(lp10555
a(lp10556
a(lp10557
a(lp10558
a(lp10559
a(lp10560
a(lp10561
a(lp10562
a(lp10563
a(lp10564
a(lp10565
a(lp10566
a(lp10567
a(lp10568
a(lp10569
a(lp10570
a(lp10571
a(lp10572
a(lp10573
a(lp10574
a(lp10575
a(lp10576
a(lp10577
a(lp10578
a(lp10579
a(lp10580
a(lp10581
a(lp10582
a(lp10583
a(lp10584
a(lp10585
a(lp10586
a(lp10587
a(lp10588
a(lp10589
a(lp10590
a(lp10591
a(lp10592
a(lp10593
a(lp10594
a(lp10595
a(lp10596
a(lp10597
a(lp10598
a(lp10599
a(lp10600
a(lp10601
a(lp10602
a(lp10603
a(lp10604
a(lp10605
a(lp10606
a(lp10607
a(lp10608
a(lp10609
a(lp10610
a(lp10611
a(lp10612
a(lp10613
a(lp10614
a(lp10615
a(lp10616
a(lp10617
a(lp10618
a(lp10619
a(lp10620
a(lp10621
a(lp10622
a(lp10623
a(lp10624
a(lp10625
a(lp10626
a(lp10627
a(lp10628
a(lp10629
a(lp10630
a(lp10631
a(lp10632
a(lp10633
a(lp10634
a(lp10635
a(lp10636
a(lp10637
a(lp10638
a(lp10639
a(lp10640
a(lp10641
a(lp10642
a(lp10643
a(lp10644
a(lp10645
a(lp10646
a(lp10647
a(lp10648
a(lp10649
a(lp10650
a(lp10651
a(lp10652
a(lp10653
a(lp10654
a(lp10655
a(lp10656
a(lp10657
a(lp10658
a(lp10659
a(lp10660
a(lp10661
a(lp10662
a(lp10663
a(lp10664
a(lp10665
a(lp10666
a(lp10667
a(lp10668
a(lp10669
a(lp10670
a(lp10671
a(lp10672
a(lp10673
a(lp10674
a(lp10675
a(lp10676
a(lp10677
a(lp10678
a(lp10679
a(lp10680
a(lp10681
a(lp10682
a(lp10683
a(lp10684
a(lp10685
a(lp10686
a(lp10687
a(lp10688
a(lp10689
a(lp10690
a(lp10691
a(lp10692
a(lp10693
a(lp10694
a(lp10695
a(lp10696
a(lp10697
a(lp10698
a(lp10699
a(lp10700
a(lp10701
a(lp10702
a(lp10703
a(lp10704
a(lp10705
a(lp10706
a(lp10707
a(lp10708
a(lp10709
a(lp10710
a(lp10711
a(lp10712
a(lp10713
a(lp10714
a(lp10715
a(lp10716
a(lp10717
a(lp10718
a(lp10719
a(lp10720
a(lp10721
a(lp10722
a(lp10723
a(lp10724
a(lp10725
a(lp10726
a(lp10727
a(lp10728
a(lp10729
a(lp10730
a(lp10731
a(lp10732
a(lp10733
a(lp10734
a(lp10735
a(lp10736
a(lp10737
a(lp10738
a(lp10739
a(lp10740
a(lp10741
a(lp10742
a(lp10743
a(lp10744
a(lp10745
a(lp10746
a(lp10747
a(lp10748
a(lp10749
a(lp10750
a(lp10751
a(lp10752
a(lp10753
a(lp10754
a(lp10755
a(lp10756
a(lp10757
a(lp10758
a(lp10759
a(lp10760
a(lp10761
a(lp10762
a(lp10763
a(lp10764
a(lp10765
a(lp10766
a(lp10767
a(lp10768
a(lp10769
a(lp10770
a(lp10771
a(lp10772
a(lp10773
a(lp10774
a(lp10775
a(lp10776
a(lp10777
a(lp10778
a(lp10779
a(lp10780
a(lp10781
a(lp10782
a(lp10783
a(lp10784
a(lp10785
a(lp10786
a(lp10787
a(lp10788
a(lp10789
a(lp10790
a(lp10791
a(lp10792
a(lp10793
a(lp10794
a(lp10795
a(lp10796
a(lp10797
a(lp10798
a(lp10799
a(lp10800
a(lp10801
a(lp10802
a(lp10803
a(lp10804
a(lp10805
a(lp10806
a(lp10807
a(lp10808
a(lp10809
a(lp10810
a(lp10811
a(lp10812
a(lp10813
a(lp10814
a(lp10815
a(lp10816
a(lp10817
a(lp10818
a(lp10819
a(lp10820
a(lp10821
a(lp10822
a(lp10823
a(lp10824
a(lp10825
a(lp10826
a(lp10827
a(lp10828
a(lp10829
a(lp10830
a(lp10831
a(lp10832
a(lp10833
a(lp10834
a(lp10835
a(lp10836
a(lp10837
a(lp10838
a(lp10839
a(lp10840
a(lp10841
a(lp10842
a(lp10843
a(lp10844
a(lp10845
a(lp10846
a(lp10847
a(lp10848
a(lp10849
a(lp10850
a(lp10851
a(lp10852
a(lp10853
a(lp10854
a(lp10855
a(lp10856
a(lp10857
a(lp10858
a(lp10859
a(lp10860
a(lp10861
a(lp10862
a(lp10863
a(lp10864
a(lp10865
a(lp10866
a(lp10867
a(lp10868
a(lp10869
a(lp10870
a(lp10871
a(lp10872
a(lp10873
a(lp10874
a(lp10875
a(lp10876
a(lp10877
a(lp10878
a(lp10879
a(lp10880
a(lp10881
a(lp10882
a(lp10883
a(lp10884
a(lp10885
a(lp10886
a(lp10887
a(lp10888
a(lp10889
a(lp10890
a(lp10891
a(lp10892
a(lp10893
a(lp10894
a(lp10895
a(lp10896
a(lp10897
a(lp10898
a(lp10899
a(lp10900
a(lp10901
a(lp10902
a(lp10903
a(lp10904
a(lp10905
a(lp10906
a(lp10907
a(lp10908
a(lp10909
a(lp10910
a(lp10911
a(lp10912
a(lp10913
a(lp10914
a(lp10915
a(lp10916
a(lp10917
a(lp10918
a(lp10919
a(lp10920
a(lp10921
a(lp10922
a(lp10923
a(lp10924
a(lp10925
a(lp10926
a(lp10927
a(lp10928
a(lp10929
a(lp10930
a(lp10931
a(lp10932
a(lp10933
a(lp10934
a(lp10935
a(lp10936
a(lp10937
a(lp10938
a(lp10939
a(lp10940
a(lp10941
a(lp10942
a(lp10943
a(lp10944
a(lp10945
a(lp10946
a(lp10947
a(lp10948
a(lp10949
a(lp10950
a(lp10951
a(lp10952
a(lp10953
a(lp10954
a(lp10955
a(lp10956
a(lp10957
a(lp10958
a(lp10959
a(lp10960
a(lp10961
a(lp10962
a(lp10963
a(lp10964
a(lp10965
a(lp10966
a(lp10967
a(lp10968
a(lp10969
a(lp10970
a(lp10971
a(lp10972
a(lp10973
a(lp10974
a(lp10975
a(lp10976
a(lp10977
a(lp10978
a(lp10979
a(lp10980
a(lp10981
a(lp10982
a(lp10983
a(lp10984
a(lp10985
a(lp10986
a(lp10987
a(lp10988
a(lp10989
a(lp10990
a(lp10991
a(lp10992
a(lp10993
a(lp10994
a(lp10995
a(lp10996
a(lp10997
a(lp10998
a(lp10999
a(lp11000
a(lp11001
a(lp11002
a(lp11003
a(lp11004
a(lp11005
a(lp11006
a(lp11007
a(lp11008
a(lp11009
a(lp11010
a(lp11011
a(lp11012
a(lp11013
a(lp11014
a(lp11015
a(lp11016
a(lp11017
a(lp11018
a(lp11019
a(lp11020
a(lp11021
a(lp11022
a(lp11023
a(lp11024
a(lp11025
a(lp11026
a(lp11027
a(lp11028
a(lp11029
a(lp11030
a(lp11031
a(lp11032
a(lp11033
a(lp11034
a(lp11035
a(lp11036
a(lp11037
a(lp11038
a(lp11039
a(lp11040
a(lp11041
a(lp11042
a(lp11043
a(lp11044
a(lp11045
a(lp11046
a(lp11047
a(lp11048
a(lp11049
a(lp11050
a(lp11051
a(lp11052
a(lp11053
a(lp11054
a(lp11055
a(lp11056
a(lp11057
a(lp11058
a(lp11059
a(lp11060
a(lp11061
a(lp11062
a(lp11063
a(lp11064
a(lp11065
a(lp11066
a(lp11067
a(lp11068
a(lp11069
a(lp11070
a(lp11071
a(lp11072
a(lp11073
a(lp11074
a(lp11075
a(lp11076
a(lp11077
a(lp11078
a(lp11079
a(lp11080
a(lp11081
a(lp11082
a(lp11083
a(lp11084
a(lp11085
a(lp11086
a(lp11087
a(lp11088
a(lp11089
a(lp11090
a(lp11091
a(lp11092
a(lp11093
a(lp11094
a(lp11095
a(lp11096
a(lp11097
a(lp11098
a(lp11099
a(lp11100
a(lp11101
a(lp11102
a(lp11103
a(lp11104
a(lp11105
a(lp11106
a(lp11107
a(lp11108
a(lp11109
a(lp11110
a(lp11111
a(lp11112
a(lp11113
a(lp11114
a(lp11115
a(lp11116
a(lp11117
a(lp11118
a(lp11119
a(lp11120
a(lp11121
a(lp11122
a(lp11123
a(lp11124
a(lp11125
a(lp11126
a(lp11127
a(lp11128
a(lp11129
a(lp11130
a(lp11131
a(lp11132
a(lp11133
a(lp11134
a(lp11135
a(lp11136
a(lp11137
a(lp11138
a(lp11139
a(lp11140
a(lp11141
a(lp11142
a(lp11143
a(lp11144
a(lp11145
a(lp11146
a(lp11147
a(lp11148
a(lp11149
a(lp11150
a(lp11151
a(lp11152
a(lp11153
a(lp11154
a(lp11155
a(lp11156
a(lp11157
a(lp11158
a(lp11159
a(lp11160
a(lp11161
a(lp11162
a(lp11163
a(lp11164
a(lp11165
a(lp11166
a(lp11167
a(lp11168
a(lp11169
a(lp11170
a(lp11171
a(lp11172
a(lp11173
a(lp11174
a(lp11175
a(lp11176
a(lp11177
a(lp11178
a(lp11179
a(lp11180
a(lp11181
a(lp11182
a(lp11183
a(lp11184
a(lp11185
a(lp11186
a(lp11187
a(lp11188
a(lp11189
a(lp11190
a(lp11191
a(lp11192
a(lp11193
a(lp11194
a(lp11195
a(lp11196
a(lp11197
a(lp11198
a(lp11199
a(lp11200
a(lp11201
a(lp11202
a(lp11203
a(lp11204
a(lp11205
a(lp11206
a(lp11207
a(lp11208
a(lp11209
a(lp11210
a(lp11211
a(lp11212
a(lp11213
a(lp11214
a(lp11215
a(lp11216
a(lp11217
a(lp11218
a(lp11219
a(lp11220
a(lp11221
a(lp11222
a(lp11223
a(lp11224
a(lp11225
a(lp11226
a(lp11227
a(lp11228
a(lp11229
a(lp11230
a(lp11231
a(lp11232
a(lp11233
a(lp11234
a(lp11235
a(lp11236
a(lp11237
a(lp11238
a(lp11239
a(lp11240
a(lp11241
a(lp11242
a(lp11243
a(lp11244
a(lp11245
a(lp11246
a(lp11247
a(lp11248
a(lp11249
a(lp11250
a(lp11251
a(lp11252
a(lp11253
a(lp11254
a(lp11255
a(lp11256
a(lp11257
a(lp11258
a(lp11259
a(lp11260
a(lp11261
a(lp11262
a(lp11263
a(lp11264
a(lp11265
a(lp11266
a(lp11267
a(lp11268
a(lp11269
a(lp11270
a(lp11271
a(lp11272
a(lp11273
a(lp11274
a(lp11275
a(lp11276
a(lp11277
a(lp11278
a(lp11279
a(lp11280
a(lp11281
a(lp11282
a(lp11283
a(lp11284
a(lp11285
a(lp11286
a(lp11287
a(lp11288
a(lp11289
a(lp11290
a(lp11291
a(lp11292
a(lp11293
a(lp11294
a(lp11295
a(lp11296
a(lp11297
a(lp11298
a(lp11299
a(lp11300
a(lp11301
a(lp11302
a(lp11303
a(lp11304
a(lp11305
a(lp11306
a(lp11307
a(lp11308
a(lp11309
a(lp11310
a(lp11311
a(lp11312
a(lp11313
a(lp11314
a(lp11315
a(lp11316
a(lp11317
a(lp11318
a(lp11319
a(lp11320
a(lp11321
a(lp11322
a(lp11323
a(lp11324
a(lp11325
a(lp11326
a(lp11327
a(lp11328
a(lp11329
a(lp11330
a(lp11331
a(lp11332
a(lp11333
a(lp11334
a(lp11335
a(lp11336
a(lp11337
a(lp11338
a(lp11339
a(lp11340
a(lp11341
a(lp11342
a(lp11343
a(lp11344
a(lp11345
a(lp11346
a(lp11347
a(lp11348
a(lp11349
a(lp11350
a(lp11351
a(lp11352
a(lp11353
a(lp11354
a(lp11355
a(lp11356
a(lp11357
a(lp11358
a(lp11359
a(lp11360
a(lp11361
a(lp11362
a(lp11363
a(lp11364
a(lp11365
a(lp11366
a(lp11367
a(lp11368
a(lp11369
a(lp11370
a(lp11371
a(lp11372
a(lp11373
a(lp11374
a(lp11375
a(lp11376
a(lp11377
a(lp11378
a(lp11379
a(lp11380
a(lp11381
a(lp11382
a(lp11383
a(lp11384
a(lp11385
a(lp11386
a(lp11387
a(lp11388
a(lp11389
a(lp11390
a(lp11391
a(lp11392
a(lp11393
a(lp11394
a(lp11395
a(lp11396
a(lp11397
a(lp11398
a(lp11399
a(lp11400
a(lp11401
a(lp11402
a(lp11403
a(lp11404
a(lp11405
a(lp11406
a(lp11407
a(lp11408
a(lp11409
a(lp11410
a(lp11411
a(lp11412
a(lp11413
a(lp11414
a(lp11415
a(lp11416
a(lp11417
a(lp11418
a(lp11419
a(lp11420
a(lp11421
a(lp11422
a(lp11423
a(lp11424
a(lp11425
a(lp11426
a(lp11427
a(lp11428
a(lp11429
a(lp11430
a(lp11431
a(lp11432
a(lp11433
a(lp11434
a(lp11435
a(lp11436
a(lp11437
a(lp11438
a(lp11439
a(lp11440
a(lp11441
a(lp11442
a(lp11443
a(lp11444
a(lp11445
a(lp11446
a(lp11447
a(lp11448
a(lp11449
a(lp11450
a(lp11451
a(lp11452
a(lp11453
a(lp11454
a(lp11455
a(lp11456
a(lp11457
a(lp11458
a(lp11459
a(lp11460
a(lp11461
a(lp11462
a(lp11463
a(lp11464
a(lp11465
a(lp11466
a(lp11467
a(lp11468
a(lp11469
a(lp11470
a(lp11471
a(lp11472
a(lp11473
a(lp11474
a(lp11475
a(lp11476
a(lp11477
a(lp11478
a(lp11479
a(lp11480
a(lp11481
a(lp11482
a(lp11483
a(lp11484
a(lp11485
a(lp11486
a(lp11487
a(lp11488
a(lp11489
a(lp11490
a(lp11491
a(lp11492
a(lp11493
a(lp11494
a(lp11495
a(lp11496
a(lp11497
a(lp11498
a(lp11499
a(lp11500
a(lp11501
a(lp11502
a(lp11503
a(lp11504
a(lp11505
a(lp11506
a(lp11507
a(lp11508
a(lp11509
a(lp11510
a(lp11511
a(lp11512
a(lp11513
a(lp11514
a(lp11515
a(lp11516
a(lp11517
a(lp11518
a(lp11519
a(lp11520
a(lp11521
a(lp11522
a(lp11523
a(lp11524
a(lp11525
a(lp11526
a(lp11527
a(lp11528
a(lp11529
a(lp11530
a(lp11531
a(lp11532
a(lp11533
a(lp11534
a(lp11535
a(lp11536
a(lp11537
a(lp11538
a(lp11539
a(lp11540
a(lp11541
a(lp11542
a(lp11543
a(lp11544
a(lp11545
a(lp11546
a(lp11547
a(lp11548
a(lp11549
a(lp11550
a(lp11551
a(lp11552
a(lp11553
a(lp11554
a(lp11555
a(lp11556
a(lp11557
a(lp11558
a(lp11559
a(lp11560
a(lp11561
a(lp11562
a(lp11563
a(lp11564
a(lp11565
a(lp11566
a(lp11567
a(lp11568
a(lp11569
a(lp11570
a(lp11571
a(lp11572
a(lp11573
a(lp11574
a(lp11575
a(lp11576
a(lp11577
a(lp11578
a(lp11579
a(lp11580
a(lp11581
a(lp11582
a(lp11583
a(lp11584
a(lp11585
a(lp11586
a(lp11587
a(lp11588
a(lp11589
a(lp11590
a(lp11591
a(lp11592
a(lp11593
a(lp11594
a(lp11595
a(lp11596
a(lp11597
a(lp11598
a(lp11599
a(lp11600
a(lp11601
a(lp11602
a(lp11603
a(lp11604
a(lp11605
a(lp11606
a(lp11607
a(lp11608
a(lp11609
a(lp11610
a(lp11611
a(lp11612
a(lp11613
a(lp11614
a(lp11615
a(lp11616
a(lp11617
a(lp11618
a(lp11619
a(lp11620
a(lp11621
a(lp11622
a(lp11623
a(lp11624
a(lp11625
a(lp11626
a(lp11627
a(lp11628
a(lp11629
a(lp11630
a(lp11631
a(lp11632
a(lp11633
a(lp11634
a(lp11635
a(lp11636
a(lp11637
a(lp11638
a(lp11639
a(lp11640
a(lp11641
a(lp11642
a(lp11643
a(lp11644
a(lp11645
a(lp11646
a(lp11647
a(lp11648
a(lp11649
a(lp11650
a(lp11651
a(lp11652
a(lp11653
a(lp11654
a(lp11655
a(lp11656
a(lp11657
a(lp11658
a(lp11659
a(lp11660
a(lp11661
a(lp11662
a(lp11663
a(lp11664
a(lp11665
a(lp11666
a(lp11667
a(lp11668
a(lp11669
a(lp11670
a(lp11671
a(lp11672
a(lp11673
a(lp11674
a(lp11675
a(lp11676
a(lp11677
a(lp11678
a(lp11679
a(lp11680
a(lp11681
a(lp11682
a(lp11683
a(lp11684
a(lp11685
a(lp11686
a(lp11687
a(lp11688
a(lp11689
a(lp11690
a(lp11691
a(lp11692
a(lp11693
a(lp11694
a(lp11695
a(lp11696
a(lp11697
a(lp11698
a(lp11699
a(lp11700
a(lp11701
a(lp11702
a(lp11703
a(lp11704
a(lp11705
a(lp11706
a(lp11707
a(lp11708
a(lp11709
a(lp11710
a(lp11711
a(lp11712
a(lp11713
a(lp11714
a(lp11715
a(lp11716
a(lp11717
a(lp11718
a(lp11719
a(lp11720
a(lp11721
a(lp11722
a(lp11723
a(lp11724
a(lp11725
a(lp11726
a(lp11727
a(lp11728
a(lp11729
a(lp11730
a(lp11731
a(lp11732
a(lp11733
a(lp11734
a(lp11735
a(lp11736
a(lp11737
a(lp11738
a(lp11739
a(lp11740
a(lp11741
a(lp11742
a(lp11743
a(lp11744
a(lp11745
a(lp11746
a(lp11747
a(lp11748
a(lp11749
a(lp11750
a(lp11751
a(lp11752
a(lp11753
a(lp11754
a(lp11755
a(lp11756
a(lp11757
a(lp11758
a(lp11759
a(lp11760
a(lp11761
a(lp11762
a(lp11763
a(lp11764
a(lp11765
a(lp11766
a(lp11767
a(lp11768
a(lp11769
a(lp11770
a(lp11771
a(lp11772
a(lp11773
a(lp11774
a(lp11775
a(lp11776
a(lp11777
a(lp11778
a(lp11779
a(lp11780
a(lp11781
a(lp11782
a(lp11783
a(lp11784
a(lp11785
a(lp11786
a(lp11787
a(lp11788
a(lp11789
a(lp11790
a(lp11791
a(lp11792
a(lp11793
a(lp11794
a(lp11795
a(lp11796
a(lp11797
a(lp11798
a(lp11799
a(lp11800
a(lp11801
a(lp11802
a(lp11803
a(lp11804
a(lp11805
a(lp11806
a(lp11807
a(lp11808
a(lp11809
a(lp11810
a(lp11811
a(lp11812
a(lp11813
a(lp11814
a(lp11815
a(lp11816
a(lp11817
a(lp11818
a(lp11819
a(lp11820
a(lp11821
a(lp11822
a(lp11823
a(lp11824
a(lp11825
a(lp11826
a(lp11827
a(lp11828
a(lp11829
a(lp11830
a(lp11831
a(lp11832
a(lp11833
a(lp11834
a(lp11835
a(lp11836
a(lp11837
a(lp11838
a(lp11839
a(lp11840
a(lp11841
a(lp11842
a(lp11843
a(lp11844
a(lp11845
a(lp11846
a(lp11847
a(lp11848
a(lp11849
a(lp11850
a(lp11851
a(lp11852
a(lp11853
a(lp11854
a(lp11855
a(lp11856
a(lp11857
a(lp11858
a(lp11859
a(lp11860
a(lp11861
a(lp11862
a(lp11863
a(lp11864
a(lp11865
a(lp11866
a(lp11867
a(lp11868
a(lp11869
a(lp11870
a(lp11871
a(lp11872
a(lp11873
a(lp11874
a(lp11875
a(lp11876
a(lp11877
a(lp11878
a(lp11879
a(lp11880
a(lp11881
a(lp11882
a(lp11883
a(lp11884
a(lp11885
a(lp11886
a(lp11887
a(lp11888
a(lp11889
a(lp11890
a(lp11891
a(lp11892
a(lp11893
a(lp11894
a(lp11895
a(lp11896
a(lp11897
a(lp11898
a(lp11899
a(lp11900
a(lp11901
a(lp11902
a(lp11903
a(lp11904
a(lp11905
a(lp11906
a(lp11907
a(lp11908
a(lp11909
a(lp11910
a(lp11911
a(lp11912
a(lp11913
a(lp11914
a(lp11915
a(lp11916
a(lp11917
a(lp11918
a(lp11919
a(lp11920
a(lp11921
a(lp11922
a(lp11923
a(lp11924
a(lp11925
a(lp11926
a(lp11927
a(lp11928
a(lp11929
a(lp11930
a(lp11931
a(lp11932
a(lp11933
a(lp11934
a(lp11935
a(lp11936
a(lp11937
a(lp11938
a(lp11939
a(lp11940
a(lp11941
a(lp11942
a(lp11943
a(lp11944
a(lp11945
a(lp11946
a(lp11947
a(lp11948
a(lp11949
a(lp11950
a(lp11951
a(lp11952
a(lp11953
a(lp11954
a(lp11955
a(lp11956
a(lp11957
a(lp11958
a(lp11959
a(lp11960
a(lp11961
a(lp11962
a(lp11963
a(lp11964
a(lp11965
a(lp11966
a(lp11967
a(lp11968
a(lp11969
a(lp11970
a(lp11971
a(lp11972
a(lp11973
a(lp11974
a(lp11975
a(lp11976
a(lp11977
a(lp11978
a(lp11979
a(lp11980
a(lp11981
a(lp11982
a(lp11983
a(lp11984
a(lp11985
a(lp11986
a(lp11987
a(lp11988
a(lp11989
a(lp11990
a(lp11991
a(lp11992
a(lp11993
a(lp11994
a(lp11995
a(lp11996
a(lp11997
a(lp11998
a(lp11999
a(lp12000
a(lp12001
a(lp12002
a(lp12003
a(lp12004
a(lp12005
a(lp12006
a(lp12007
a(lp12008
a(lp12009
a(lp12010
a(lp12011
a(lp12012
a(lp12013
aa.